

Microchip MPLAB XC8 Assembler V2.41 build 20230208172133 
                                                                                               Thu Oct 05 18:38:19 2023

Microchip MPLAB XC8 C Compiler v2.41 (Free license) build 20230208172133 Og1 
     1                           	processor	18F4620
     2                           	fnconf	rparam,??,?,0
     3                           	pagewidth 120
     4                           	opt	flic
     5                           	psect	idataCOMRAM,global,class=CODE,delta=1,noexec
     6                           	psect	idataBANK0,global,class=CODE,delta=1,noexec
     7                           	psect	idataBANK1,global,class=CODE,delta=1,noexec
     8                           	psect	smallconst,global,reloc=2,class=SMALLCONST,delta=1,noexec
     9                           	psect	nvBANK0,global,class=BANK0,space=1,delta=1,lowdata,noexec
    10                           	psect	cinit,global,reloc=2,class=CODE,delta=1
    11                           	psect	bssCOMRAM,global,class=COMRAM,space=1,delta=1,lowdata,noexec
    12                           	psect	dataCOMRAM,global,class=COMRAM,space=1,delta=1,lowdata,noexec
    13                           	psect	bssBANK0,global,class=BANK0,space=1,delta=1,lowdata,noexec
    14                           	psect	dataBANK0,global,class=BANK0,space=1,delta=1,lowdata,noexec
    15                           	psect	bssBANK1,global,class=BANK1,space=1,delta=1,lowdata,noexec
    16                           	psect	dataBANK1,global,class=BANK1,space=1,delta=1,lowdata,noexec
    17                           	psect	cstackBANK1,global,class=BANK1,space=1,delta=1,lowdata,noexec
    18                           	psect	cstackCOMRAM,global,class=COMRAM,space=1,delta=1,lowdata,noexec
    19                           	psect	text0,global,reloc=2,class=CODE,delta=1
    20                           	psect	text1,global,reloc=2,class=CODE,delta=1
    21                           	psect	text2,global,reloc=2,class=CODE,delta=1,group=1
    22                           	psect	text3,global,reloc=2,class=CODE,delta=1,group=1
    23                           	psect	text4,global,reloc=2,class=CODE,delta=1,group=1
    24                           	psect	text5,global,reloc=2,class=CODE,delta=1,group=1
    25                           	psect	text6,global,reloc=2,class=CODE,delta=1,inline
    26                           	psect	text7,global,reloc=2,class=CODE,delta=1
    27                           	psect	text8,global,reloc=2,class=CODE,delta=1
    28                           	psect	text9,global,reloc=2,class=CODE,delta=1
    29                           	psect	text10,global,reloc=2,class=CODE,delta=1
    30                           	psect	text11,global,reloc=2,class=CODE,delta=1
    31                           	psect	text12,global,reloc=2,class=CODE,delta=1
    32                           	psect	intcode,global,reloc=2,class=CODE,delta=1
    33                           	psect	intcode_body,global,reloc=2,class=CODE,delta=1
    34                           	psect	text14,global,reloc=2,class=CODE,delta=1
    35                           	psect	text15,global,reloc=2,class=CODE,delta=1
    36                           	psect	text16,global,reloc=2,class=CODE,delta=1
    37                           	psect	text17,global,reloc=2,class=CODE,delta=1
    38                           	psect	text18,global,reloc=2,class=CODE,delta=1
    39                           	psect	text19,global,reloc=2,class=CODE,delta=1
    40                           	psect	text20,global,reloc=2,class=CODE,delta=1
    41                           	psect	text21,global,reloc=2,class=CODE,delta=1
    42                           	psect	text22,global,reloc=2,class=CODE,delta=1
    43                           	psect	text23,global,reloc=2,class=CODE,delta=1
    44                           	psect	text24,global,reloc=2,class=CODE,delta=1
    45                           	psect	text25,global,reloc=2,class=CODE,delta=1
    46                           	psect	text26,global,reloc=2,class=CODE,delta=1
    47                           	psect	text27,global,reloc=2,class=CODE,delta=1
    48                           	psect	text28,global,reloc=2,class=CODE,delta=1
    49                           	psect	text29,global,reloc=2,class=CODE,delta=1
    50                           	psect	text30,global,reloc=2,class=CODE,delta=1
    51                           	psect	text31,global,reloc=2,class=CODE,delta=1
    52                           	psect	text32,global,reloc=2,class=CODE,delta=1
    53                           	psect	text33,global,reloc=2,class=CODE,delta=1
    54                           	psect	text34,global,reloc=2,class=CODE,delta=1
    55                           	psect	text35,global,reloc=2,class=CODE,delta=1
    56                           	psect	text36,global,reloc=2,class=CODE,delta=1
    57                           	psect	text37,global,reloc=2,class=CODE,delta=1
    58                           	psect	text38,global,reloc=2,class=CODE,delta=1
    59                           	psect	text39,global,reloc=2,class=CODE,delta=1
    60                           	psect	text40,global,reloc=2,class=CODE,delta=1
    61                           	psect	text41,global,reloc=2,class=CODE,delta=1
    62                           	psect	text42,global,reloc=2,class=CODE,delta=1
    63                           	psect	text43,global,reloc=2,class=CODE,delta=1
    64                           	psect	text44,global,reloc=2,class=CODE,delta=1
    65                           	psect	text45,global,reloc=2,class=CODE,delta=1
    66                           	psect	text46,global,reloc=2,class=CODE,delta=1
    67                           	psect	intsave_regs,global,class=BIGRAM,space=1,delta=1,noexec
    68                           	psect	text47,global,reloc=2,class=CODE,delta=1
    69                           	psect	rparam,global,class=COMRAM,space=1,delta=1,noexec
    70                           	psect	temp,global,ovrld,common,class=COMRAM,space=1,delta=1
    71                           	psect	idloc,global,abs,ovrld,class=IDLOC,space=5,delta=1,noexec
    72                           	psect	config,global,abs,ovrld,class=CONFIG,space=4,delta=1,noexec
    73   000000                     
    74                           ; Version 2.20
    75                           ; Generated 12/02/2020 GMT
    76                           ; 
    77                           ; Copyright © 2020, Microchip Technology Inc. and its subsidiaries ("Microchip")
    78                           ; All rights reserved.
    79                           ; 
    80                           ; This software is developed by Microchip Technology Inc. and its subsidiaries ("Microch
      +                          ip").
    81                           ; 
    82                           ; Redistribution and use in source and binary forms, with or without modification, are
    83                           ; permitted provided that the following conditions are met:
    84                           ; 
    85                           ;     1. Redistributions of source code must retain the above copyright notice, this lis
      +                          t of
    86                           ;        conditions and the following disclaimer.
    87                           ; 
    88                           ;     2. Redistributions in binary form must reproduce the above copyright notice, this 
      +                          list
    89                           ;        of conditions and the following disclaimer in the documentation and/or other
    90                           ;        materials provided with the distribution.
    91                           ; 
    92                           ;     3. Microchip's name may not be used to endorse or promote products derived from th
      +                          is
    93                           ;        software without specific prior written permission.
    94                           ; 
    95                           ; THIS SOFTWARE IS PROVIDED BY MICROCHIP "AS IS" AND ANY EXPRESS OR IMPLIED WARRANTIES,
    96                           ; INCLUDING, BUT NOT LIMITED TO, THE IMPLIED WARRANTIES OF MERCHANTABILITY AND FITNESS F
      +                          OR
    97                           ; PURPOSE ARE DISCLAIMED.  IN NO EVENT SHALL MICROCHIP BE LIABLE FOR ANY DIRECT, INDIREC
      +                          T,
    98                           ; INCIDENTAL, SPECIAL, EXEMPLARY, OR CONSEQUENTIAL DAMAGES (INCLUDING BUT NOT LIMITED TO
    99                           ; PROCUREMENT OF SUBSTITUTE GOODS OR SERVICES; LOSS OF USE, DATA OR PROFITS; OR BUSINESS
   100                           ; INTERRUPTION) HOWSOEVER CAUSED AND ON ANY THEORY OF LIABILITY, WHETHER IN CONTRACT, ST
      +                          RICT
   101                           ; LIABILITY, OR TORT (INCLUDING NEGLIGENCE OR OTHERWISE) ARISING IN ANY WAY OUT OF THE U
      +                          SE OF
   102                           ; THIS SOFTWARE, EVEN IF ADVISED OF THE POSSIBILITY OF SUCH DAMAGE.
   103                           ; 
   104                           ; 
   105                           ; Code-generator required, PIC18F4620 Definitions
   106                           ; 
   107                           ; SFR Addresses
   108   000000                     
   109                           	psect	idataCOMRAM
   110   003002                     __pidataCOMRAM:
   111                           	callstack 0
   112                           
   113                           ;initializer for _led_2
   114   003002  12                 	db	18
   115                           
   116                           ;initializer for _second
   117   003003  37                 	db	55
   118                           
   119                           ;initializer for _hour
   120   003004  17                 	db	23
   121                           
   122                           ;initializer for _minutes
   123   003005  3B                 	db	59
   124                           
   125                           ;initializer for _m
   126   003006  17                 	db	23
   127                           
   128                           ;initializer for _RB7_Flag
   129   003007  01                 	db	1
   130                           
   131                           ;initializer for _RB6_Flag
   132   003008  01                 	db	1
   133                           
   134                           ;initializer for _RB5_Flag
   135   003009  01                 	db	1
   136                           
   137                           ;initializer for _RB4_Flag
   138   00300A  01                 	db	1
   139                           
   140                           ;initializer for _led_1
   141   00300B  02                 	db	2
   142                           
   143                           	psect	idataBANK0
   144   002FB2                     __pidataBANK0:
   145                           	callstack 0
   146                           
   147                           ;initializer for _lat_register
   148   002FB2  89                 	db	137
   149   002FB3  0F                 	db	15
   150   002FB4  8A                 	db	138
   151   002FB5  0F                 	db	15
   152   002FB6  8B                 	db	139
   153   002FB7  0F                 	db	15
   154   002FB8  8C                 	db	140
   155   002FB9  0F                 	db	15
   156   002FBA  8D                 	db	141
   157   002FBB  0F                 	db	15
   158                           
   159                           ;initializer for _seg_1
   160   002FBC  02                 	db	2
   161   002FBD  0A                 	db	10
   162   002FBE  12                 	db	18
   163   002FBF  1A                 	db	26
   164   002FC0  00                 	db	0
   165                           
   166                           ;initializer for _btn_low
   167   002FC1  C3                 	db	195
   168   002FC2  00                 	db	0
   169   002FC3  00                 	db	0
   170                           
   171                           ;initializer for _btn_high
   172   002FC4  52                 	db	82
   173   002FC5  00                 	db	0
   174   002FC6  01                 	db	1
   175                           
   176                           ;initializer for _dc_motor_2
   177   002FC7  1A                 	db	26
   178   002FC8  1B                 	db	27
   179                           
   180                           ;initializer for _dc_motor_1
   181   002FC9  18                 	db	24
   182   002FCA  19                 	db	25
   183                           
   184                           ;initializer for _relay_1
   185   002FCB  10                 	db	16
   186                           
   187                           	psect	idataBANK1
   188   002914                     __pidataBANK1:
   189                           	callstack 0
   190                           
   191                           ;initializer for _usart_obj_1
   192   002914  2580               	dw	9600
   193   002916  00                 	db	0
   194   002917  01                 	db	1
   195   002918  00                 	db	0
   196   002919  01                 	db	1
   197   00291A  00                 	db	0
   198   00291B  00                 	db	0
   199   00291C  00                 	db	0
   200   00291D  00                 	db	0
   201   00291E  00                 	db	0
   202   00291F  00                 	db	0
   203   002920  00                 	db	0
   204   002921  00                 	db	0
   205   002922  00                 	db	0
   206   002923  00                 	db	0
   207                           
   208                           ;initializer for _ccp_obj_capture
   209   002924  00                 	db	0
   210   002925  05                 	db	5
   211   002926  52                 	db	82
   212   002927  00                 	db	0
   213   002928  00                 	db	0
   214   002929  1C                 	db	low _Timer3_Interrupt_capture
   215   00292A  30                 	db	high _Timer3_Interrupt_capture
   216   00292B  00                 	db	0
   217   00292C  00                 	db	0
   218   00292D  00                 	db	0
   219   00292E  00                 	db	0
   220                           
   221                           ;initializer for _lcd1
   222   00292F  32                 	db	50
   223   002930  3A                 	db	58
   224   002931  03                 	db	3
   225   002932  0B                 	db	11
   226   002933  13                 	db	19
   227   002934  1B                 	db	27
   228   002935  23                 	db	35
   229   002936  2B                 	db	43
   230   002937  33                 	db	51
   231   002938  3B                 	db	59
   232                           
   233                           ;initializer for _port_register
   234   002939  80                 	db	128
   235   00293A  0F                 	db	15
   236   00293B  81                 	db	129
   237   00293C  0F                 	db	15
   238   00293D  82                 	db	130
   239   00293E  0F                 	db	15
   240   00293F  83                 	db	131
   241   002940  0F                 	db	15
   242   002941  84                 	db	132
   243   002942  0F                 	db	15
   244                           
   245                           ;initializer for _tris_register
   246   002943  92                 	db	146
   247   002944  0F                 	db	15
   248   002945  93                 	db	147
   249   002946  0F                 	db	15
   250   002947  94                 	db	148
   251   002948  0F                 	db	15
   252   002949  95                 	db	149
   253   00294A  0F                 	db	15
   254   00294B  96                 	db	150
   255   00294C  0F                 	db	15
   256                           
   257                           ;initializer for _timer0_counter
   258   00294D  3A                 	db	low _timer_ISR
   259   00294E  30                 	db	high _timer_ISR
   260   00294F  00                 	db	0
   261   002950  00                 	db	0
   262   002951  00                 	db	0
   263   002952  0000               	dw	0
   264   002954  01                 	db	1
   265                           
   266                           ;initializer for _timer0
   267   002955  3A                 	db	low _timer_ISR
   268   002956  30                 	db	high _timer_ISR
   269   002957  00                 	db	0
   270   002958  02                 	db	2
   271   002959  01                 	db	1
   272   00295A  0BDC               	dw	3036
   273   00295C  02                 	db	2
   274                           
   275                           ;initializer for _keypad1
   276   00295D  02                 	db	2
   277   00295E  0A                 	db	10
   278   00295F  12                 	db	18
   279   002960  1A                 	db	26
   280   002961  62                 	db	98
   281   002962  6A                 	db	106
   282   002963  72                 	db	114
   283   002964  7A                 	db	122
   284                           
   285                           ;initializer for _ADC_1
   286   002965  00                 	db	0
   287   002966  00                 	db	0
   288   002967  00                 	db	0
   289   002968  05                 	db	5
   290   002969  05                 	db	5
   291   00296A  00                 	db	0
   292   00296B  02                 	db	2
   293                           
   294                           ;initializer for _CHR_4_LCD
   295   00296C  02                 	db	2
   296   00296D  0A                 	db	10
   297   00296E  12                 	db	18
   298   00296F  1A                 	db	26
   299   002970  22                 	db	34
   300   002971  2A                 	db	42
   301                           
   302                           ;initializer for _intRB_0
   303   002972  DE                 	db	low _APP_RB4_High
   304   002973  2F                 	db	high _APP_RB4_High
   305   002974  CC                 	db	low _APP_RB4_Low
   306   002975  2F                 	db	high _APP_RB4_Low
   307   002976  71                 	db	113
   308   002977  01                 	db	1
   309                           
   310                           ;initializer for _intx_0
   311   002978  F0                 	db	low _APP_ISR
   312   002979  2F                 	db	high _APP_ISR
   313   00297A  01                 	db	1
   314   00297B  00                 	db	0
   315   00297C  01                 	db	1
   316   00297D  41                 	db	65
   317                           
   318                           ;initializer for _ccp_compare
   319   00297E  01                 	db	1
   320   00297F  08                 	db	8
   321   002980  12                 	db	18
   322   002981  00                 	db	0
   323   002982  00                 	db	0
   324   002983  86                 	db	low _Timer3_Interrupt_compare
   325   002984  26                 	db	high _Timer3_Interrupt_compare
   326   002985  00                 	db	0
   327   002986  00                 	db	0
   328   002987  00                 	db	0
   329   002988  00                 	db	0
   330                           
   331                           ;initializer for _timer3_compare
   332   002989  00                 	db	0
   333   00298A  00                 	db	0
   334   00298B  00                 	db	0
   335   00298C  0000               	dw	0
   336   00298E  10                 	db	16
   337                           
   338                           ;initializer for _timer_obj_capture
   339   00298F  1C                 	db	low _Timer3_Interrupt_capture
   340   002990  30                 	db	high _Timer3_Interrupt_capture
   341   002991  00                 	db	0
   342   002992  0000               	dw	0
   343   002994  00                 	db	0
   344                           
   345                           	psect	smallconst
   346   001000                     __psmallconst:
   347                           	callstack 0
   348   001000  00                 	db	0
   349   001001                     _btn_value:
   350                           	callstack 0
   351   001001  37                 	db	55
   352   001002  38                 	db	56
   353   001003  39                 	db	57
   354   001004  2F                 	db	47
   355   001005  34                 	db	52
   356   001006  35                 	db	53
   357   001007  36                 	db	54
   358   001008  2A                 	db	42
   359   001009  31                 	db	49
   360   00100A  32                 	db	50
   361   00100B  33                 	db	51
   362   00100C  2D                 	db	45
   363   00100D  23                 	db	35
   364   00100E  30                 	db	48
   365   00100F  3D                 	db	61
   366   001010  2B                 	db	43
   367   001011                     __end_of_btn_value:
   368                           	callstack 0
   369   000000                     _SPBRGH	set	4016
   370   000000                     _SPBRG	set	4015
   371   000000                     _TXREG	set	4013
   372   000000                     _TXSTAbits	set	4012
   373   000000                     _RCREG	set	4014
   374   000000                     _RCSTAbits	set	4011
   375   000000                     _TMR3L	set	4018
   376   000000                     _TMR3H	set	4019
   377   000000                     _TMR1L	set	4046
   378   000000                     _TMR1H	set	4047
   379   000000                     _TMR0L	set	4054
   380   000000                     _TMR0H	set	4055
   381   000000                     _INTCON2bits	set	4081
   382   000000                     _SSPSTATbits	set	4039
   383   000000                     _SSPCON2bits	set	4037
   384   000000                     _SSPADD	set	4040
   385   000000                     _SSPCON1bits	set	4038
   386   000000                     _EECON2	set	4007
   387   000000                     _CCPR2H	set	4028
   388   000000                     _CCPR2L	set	4027
   389   000000                     _CCPR1H	set	4031
   390   000000                     _CCPR1L	set	4030
   391   000000                     _ADCON1bits	set	4033
   392   000000                     _ADRESL	set	4035
   393   000000                     _ADRESH	set	4036
   394   000000                     _INTCONbits	set	4082
   395   000000                     _TRISD	set	3989
   396   000000                     _TRISC	set	3988
   397   000000                     _TRISB	set	3987
   398   000000                     _TRISE	set	3990
   399   001011                     STR_1:
   400   001011  25                 	db	37
   401   001012  69                 	db	105	;'i'
   402   001013  00                 	db	0
   403   001014  00                 	db	0	; dummy byte at the end
   404   000000                     
   405                           	psect	nvBANK0
   406   0000FF                     __pnvBANK0:
   407                           	callstack 0
   408   0000FF                     _ret:
   409                           	callstack 0
   410   0000FF                     	ds	1
   411   000000                     _PORTBbits	set	3969
   412   000000                     _TRISCbits	set	3988
   413   000000                     _PIE1bits	set	3997
   414   000000                     _ADCON2bits	set	4032
   415   000000                     _ADCON0bits	set	4034
   416   000000                     _PORTE	set	3972
   417   000000                     _PORTD	set	3971
   418   000000                     _PORTC	set	3970
   419   000000                     _PORTB	set	3969
   420   000000                     _PORTA	set	3968
   421   000000                     _LATA	set	3977
   422   000000                     _TRISA	set	3986
   423   000000                     _PIE2bits	set	4000
   424   000000                     _CCP2CONbits	set	4026
   425   000000                     _CCP1CONbits	set	4029
   426   000000                     _PIR1bits	set	3998
   427   000000                     _EECON1bits	set	4006
   428   000000                     _EEDATA	set	4008
   429   000000                     _EEADR	set	4009
   430   000000                     _EEADRH	set	4010
   431   000000                     _T3CONbits	set	4017
   432   000000                     _PIR2bits	set	4001
   433   000000                     _LATE	set	3981
   434   000000                     _LATD	set	3980
   435   000000                     _LATC	set	3979
   436   000000                     _LATB	set	3978
   437   000000                     _TMR2	set	4044
   438   000000                     _T2CONbits	set	4042
   439   000000                     _T1CONbits	set	4045
   440   000000                     _T0CONbits	set	4053
   441   000000                     _INTCON3bits	set	4080
   442   000000                     _SSPBUF	set	4041
   443   000000                     _BAUDCONbits	set	4024
   444                           
   445                           ; #config settings
   446                           
   447                           	psect	cinit
   448   0025F8                     __pcinit:
   449                           	callstack 0
   450   0025F8                     start_initialization:
   451                           	callstack 0
   452   0025F8                     __initialization:
   453                           	callstack 0
   454                           
   455                           ; Initialize objects allocated to BANK1 (129 bytes)
   456                           ; load TBLPTR registers with __pidataBANK1
   457   0025F8  0E14               	movlw	low __pidataBANK1
   458   0025FA  6EF6               	movwf	tblptrl,c
   459   0025FC  0E29               	movlw	high __pidataBANK1
   460   0025FE  6EF7               	movwf	tblptrh,c
   461   002600  0E00               	movlw	low (__pidataBANK1 shr (0+16))
   462   002602  6EF8               	movwf	tblptru,c
   463   002604  EE01  F000         	lfsr	0,__pdataBANK1
   464   002608  EE10 F081          	lfsr	1,129
   465   00260C                     copy_data0:
   466   00260C  0009               	tblrd		*+
   467   00260E  CFF5 FFEE          	movff	tablat,postinc0
   468   002612  50E5               	movf	postdec1,w,c
   469   002614  50E1               	movf	fsr1l,w,c
   470   002616  E1FA               	bnz	copy_data0
   471                           
   472                           ; Initialize objects allocated to BANK0 (26 bytes)
   473                           ; load TBLPTR registers with __pidataBANK0
   474   002618  0EB2               	movlw	low __pidataBANK0
   475   00261A  6EF6               	movwf	tblptrl,c
   476   00261C  0E2F               	movlw	high __pidataBANK0
   477   00261E  6EF7               	movwf	tblptrh,c
   478   002620  0E00               	movlw	low (__pidataBANK0 shr (0+16))
   479   002622  6EF8               	movwf	tblptru,c
   480   002624  EE00  F0E5         	lfsr	0,__pdataBANK0
   481   002628  EE10 F01A          	lfsr	1,26
   482   00262C                     copy_data1:
   483   00262C  0009               	tblrd		*+
   484   00262E  CFF5 FFEE          	movff	tablat,postinc0
   485   002632  50E5               	movf	postdec1,w,c
   486   002634  50E1               	movf	fsr1l,w,c
   487   002636  E1FA               	bnz	copy_data1
   488                           
   489                           ; Initialize objects allocated to COMRAM (10 bytes)
   490                           ; load TBLPTR registers with __pidataCOMRAM
   491   002638  0E02               	movlw	low __pidataCOMRAM
   492   00263A  6EF6               	movwf	tblptrl,c
   493   00263C  0E30               	movlw	high __pidataCOMRAM
   494   00263E  6EF7               	movwf	tblptrh,c
   495   002640  0E00               	movlw	low (__pidataCOMRAM shr (0+16))
   496   002642  6EF8               	movwf	tblptru,c
   497   002644  EE00  F060         	lfsr	0,__pdataCOMRAM
   498   002648  EE10 F00A          	lfsr	1,10
   499   00264C                     copy_data2:
   500   00264C  0009               	tblrd		*+
   501   00264E  CFF5 FFEE          	movff	tablat,postinc0
   502   002652  50E5               	movf	postdec1,w,c
   503   002654  50E1               	movf	fsr1l,w,c
   504   002656  E1FA               	bnz	copy_data2
   505                           
   506                           ; Clear objects allocated to BANK1 (30 bytes)
   507   002658  EE01  F081         	lfsr	0,__pbssBANK1
   508   00265C  0E1E               	movlw	30
   509   00265E                     clear_0:
   510   00265E  6AEE               	clrf	postinc0,c
   511   002660  06E8               	decf	wreg,f,c
   512   002662  E1FD               	bnz	clear_0
   513                           
   514                           ; Clear objects allocated to BANK0 (101 bytes)
   515   002664  EE00  F080         	lfsr	0,__pbssBANK0
   516   002668  0E65               	movlw	101
   517   00266A                     clear_1:
   518   00266A  6AEE               	clrf	postinc0,c
   519   00266C  06E8               	decf	wreg,f,c
   520   00266E  E1FD               	bnz	clear_1
   521                           
   522                           ; Clear objects allocated to COMRAM (25 bytes)
   523   002670  EE00  F047         	lfsr	0,__pbssCOMRAM
   524   002674  0E19               	movlw	25
   525   002676                     clear_2:
   526   002676  6AEE               	clrf	postinc0,c
   527   002678  06E8               	decf	wreg,f,c
   528   00267A  E1FD               	bnz	clear_2
   529   00267C                     end_of_initialization:
   530                           	callstack 0
   531   00267C                     __end_of__initialization:
   532                           	callstack 0
   533   00267C  906A               	bcf	int$flags,0,c	;clear compiler interrupt flag (level 1)
   534   00267E  926A               	bcf	int$flags,1,c	;clear compiler interrupt flag (level 2)
   535   002680  0100               	movlb	0
   536   002682  EF65  F012         	goto	_main	;jump to C main() function
   537                           
   538                           	psect	bssCOMRAM
   539   000047                     __pbssCOMRAM:
   540                           	callstack 0
   541   000047                     CCP_Interrupt_Capture@CCP_interrupt_flag:
   542                           	callstack 0
   543   000047                     	ds	1
   544   000048                     _ccp_callback:
   545                           	callstack 0
   546   000048                     	ds	1
   547   000049                     _CCP_Second_capture_flag:
   548                           	callstack 0
   549   000049                     	ds	1
   550   00004A                     _LM35_celisis_2:
   551                           	callstack 0
   552   00004A                     	ds	1
   553   00004B                     _LM35_celisis_1:
   554                           	callstack 0
   555   00004B                     	ds	1
   556   00004C                     _value_column:
   557                           	callstack 0
   558   00004C                     	ds	1
   559   00004D                     _count:
   560                           	callstack 0
   561   00004D                     	ds	1
   562   00004E                     _x:
   563                           	callstack 0
   564   00004E                     	ds	1
   565   00004F                     _slave_rec_data:
   566                           	callstack 0
   567   00004F                     	ds	1
   568   000050                     _slave2_ack:
   569                           	callstack 0
   570   000050                     	ds	1
   571   000051                     relay_turn_off@F3020:
   572                           	callstack 0
   573   000051                     	ds	1
   574   000052                     relay_turn_on@F3015:
   575                           	callstack 0
   576   000052                     	ds	1
   577   000053                     relay_intialize@F3010:
   578                           	callstack 0
   579   000053                     	ds	1
   580   000054                     led_toggle@F3031:
   581                           	callstack 0
   582   000054                     	ds	1
   583   000055                     led_turn_off@F3026:
   584                           	callstack 0
   585   000055                     	ds	1
   586   000056                     led_turn_on@F3021:
   587                           	callstack 0
   588   000056                     	ds	1
   589   000057                     led_intialize@F3016:
   590                           	callstack 0
   591   000057                     	ds	1
   592   000058                     dc_motor_stop@F3038:
   593                           	callstack 0
   594   000058                     	ds	1
   595   000059                     dc_motor_stop@F3036:
   596                           	callstack 0
   597   000059                     	ds	1
   598   00005A                     dc_motor_turn_left@F3031:
   599                           	callstack 0
   600   00005A                     	ds	1
   601   00005B                     dc_motor_turn_left@F3029:
   602                           	callstack 0
   603   00005B                     	ds	1
   604   00005C                     dc_motor_turn_right@F3024:
   605                           	callstack 0
   606   00005C                     	ds	1
   607   00005D                     dc_motor_turn_right@F3022:
   608                           	callstack 0
   609   00005D                     	ds	1
   610   00005E                     dc_motor_intialize@F3017:
   611                           	callstack 0
   612   00005E                     	ds	1
   613   00005F                     dc_motor_intialize@F3015:
   614                           	callstack 0
   615   00005F                     	ds	1
   616                           
   617                           	psect	dataCOMRAM
   618   000060                     __pdataCOMRAM:
   619                           	callstack 0
   620   000060                     _led_2:
   621                           	callstack 0
   622   000060                     	ds	1
   623   000061                     _second:
   624                           	callstack 0
   625   000061                     	ds	1
   626   000062                     _hour:
   627                           	callstack 0
   628   000062                     	ds	1
   629   000063                     _minutes:
   630                           	callstack 0
   631   000063                     	ds	1
   632   000064                     _m:
   633                           	callstack 0
   634   000064                     	ds	1
   635   000065                     _RB7_Flag:
   636                           	callstack 0
   637   000065                     	ds	1
   638   000066                     _RB6_Flag:
   639                           	callstack 0
   640   000066                     	ds	1
   641   000067                     _RB5_Flag:
   642                           	callstack 0
   643   000067                     	ds	1
   644   000068                     _RB4_Flag:
   645                           	callstack 0
   646   000068                     	ds	1
   647   000069                     _led_1:
   648                           	callstack 0
   649   000069                     	ds	1
   650                           
   651                           	psect	bssBANK0
   652   000080                     __pbssBANK0:
   653                           	callstack 0
   654   000080                     _freq_capture:
   655                           	callstack 0
   656   000080                     	ds	2
   657   000082                     _timer3_overflow:
   658                           	callstack 0
   659   000082                     	ds	2
   660   000084                     _second_capture:
   661                           	callstack 0
   662   000084                     	ds	2
   663   000086                     _timer1_counter:
   664                           	callstack 0
   665   000086                     	ds	2
   666   000088                     _timer2_on:
   667                           	callstack 0
   668   000088                     	ds	2
   669   00008A                     _timer1_on:
   670                           	callstack 0
   671   00008A                     	ds	2
   672   00008C                     _timer0_value:
   673                           	callstack 0
   674   00008C                     	ds	2
   675   00008E                     _Reslt_2:
   676                           	callstack 0
   677   00008E                     	ds	2
   678   000090                     _Reslt_1:
   679                           	callstack 0
   680   000090                     	ds	2
   681   000092                     _USART_OVERRUN_ERROR_InterruptHandler:
   682                           	callstack 0
   683   000092                     	ds	2
   684   000094                     _USART_FRAMING_ERROR_InterruptHandler:
   685                           	callstack 0
   686   000094                     	ds	2
   687   000096                     _USART_RX_InterruptHandler:
   688                           	callstack 0
   689   000096                     	ds	2
   690   000098                     _USART_TX_InterruptHandler:
   691                           	callstack 0
   692   000098                     	ds	2
   693   00009A                     _timer3_preload:
   694                           	callstack 0
   695   00009A                     	ds	2
   696   00009C                     _TM3_InterruptHandler:
   697                           	callstack 0
   698   00009C                     	ds	2
   699   00009E                     _timer2_preload:
   700                           	callstack 0
   701   00009E                     	ds	2
   702   0000A0                     _TM2_InterruptHandler:
   703                           	callstack 0
   704   0000A0                     	ds	2
   705   0000A2                     _timer1_preload:
   706                           	callstack 0
   707   0000A2                     	ds	2
   708   0000A4                     _TM1_InterruptHandler:
   709                           	callstack 0
   710   0000A4                     	ds	2
   711   0000A6                     _timer0_preload:
   712                           	callstack 0
   713   0000A6                     	ds	2
   714   0000A8                     _TM0_InterruptHandler:
   715                           	callstack 0
   716   0000A8                     	ds	2
   717   0000AA                     _RB7_InterruptHandler_Low:
   718                           	callstack 0
   719   0000AA                     	ds	2
   720   0000AC                     _RB7_InterruptHandler_High:
   721                           	callstack 0
   722   0000AC                     	ds	2
   723   0000AE                     _RB6_InterruptHandler_Low:
   724                           	callstack 0
   725   0000AE                     	ds	2
   726   0000B0                     _RB6_InterruptHandler_High:
   727                           	callstack 0
   728   0000B0                     	ds	2
   729   0000B2                     _RB5_InterruptHandler_Low:
   730                           	callstack 0
   731   0000B2                     	ds	2
   732   0000B4                     _RB5_InterruptHandler_High:
   733                           	callstack 0
   734   0000B4                     	ds	2
   735   0000B6                     _RB4_InterruptHandler_Low:
   736                           	callstack 0
   737   0000B6                     	ds	2
   738   0000B8                     _RB4_InterruptHandler_High:
   739                           	callstack 0
   740   0000B8                     	ds	2
   741   0000BA                     _INT2_InterruptHandler:
   742                           	callstack 0
   743   0000BA                     	ds	2
   744   0000BC                     _INT1_InterruptHandler:
   745                           	callstack 0
   746   0000BC                     	ds	2
   747   0000BE                     _INT0_InterruptHandler:
   748                           	callstack 0
   749   0000BE                     	ds	2
   750   0000C0                     _I2C_Report_Recive_OverFlow_InterruptHandler:
   751                           	callstack 0
   752   0000C0                     	ds	2
   753   0000C2                     _I2C_DefaultInterruptHandler:
   754                           	callstack 0
   755   0000C2                     	ds	2
   756   0000C4                     _I2C_Report_Write_Collision_InterruptHandler:
   757                           	callstack 0
   758   0000C4                     	ds	2
   759   0000C6                     ccp_compare_mode_write_value@F3067:
   760                           	callstack 0
   761   0000C6                     	ds	2
   762   0000C8                     _ccp1_preload:
   763                           	callstack 0
   764   0000C8                     	ds	2
   765   0000CA                     _CCP2_InterruptHandler:
   766                           	callstack 0
   767   0000CA                     	ds	2
   768   0000CC                     _CCP1_InterruptHandler:
   769                           	callstack 0
   770   0000CC                     	ds	2
   771   0000CE                     _ADC_InterruptHandler:
   772                           	callstack 0
   773   0000CE                     	ds	2
   774   0000D0                     _i2c_obj:
   775                           	callstack 0
   776   0000D0                     	ds	13
   777   0000DD                     _timer2:
   778                           	callstack 0
   779   0000DD                     	ds	6
   780   0000E3                     _total_period_Micro_capture:
   781                           	callstack 0
   782   0000E3                     	ds	2
   783                           
   784                           	psect	dataBANK0
   785   0000E5                     __pdataBANK0:
   786                           	callstack 0
   787   0000E5                     _lat_register:
   788                           	callstack 0
   789   0000E5                     	ds	10
   790   0000EF                     _seg_1:
   791                           	callstack 0
   792   0000EF                     	ds	5
   793   0000F4                     _btn_low:
   794                           	callstack 0
   795   0000F4                     	ds	3
   796   0000F7                     _btn_high:
   797                           	callstack 0
   798   0000F7                     	ds	3
   799   0000FA                     _dc_motor_2:
   800                           	callstack 0
   801   0000FA                     	ds	2
   802   0000FC                     _dc_motor_1:
   803                           	callstack 0
   804   0000FC                     	ds	2
   805   0000FE                     _relay_1:
   806                           	callstack 0
   807   0000FE                     	ds	1
   808                           
   809                           	psect	bssBANK1
   810   000181                     __pbssBANK1:
   811                           	callstack 0
   812   000181                     _timer2_obj:
   813                           	callstack 0
   814   000181                     	ds	6
   815   000187                     _counter_obj:
   816                           	callstack 0
   817   000187                     	ds	6
   818   00018D                     _Convert_2:
   819                           	callstack 0
   820   00018D                     	ds	6
   821   000193                     _Convert_1:
   822                           	callstack 0
   823   000193                     	ds	6
   824   000199                     	ds	6
   825                           
   826                           	psect	dataBANK1
   827   000100                     __pdataBANK1:
   828                           	callstack 0
   829   000100                     _usart_obj_1:
   830                           	callstack 0
   831   000100                     	ds	16
   832   000110                     _ccp_obj_capture:
   833                           	callstack 0
   834   000110                     	ds	11
   835   00011B                     _lcd1:
   836                           	callstack 0
   837   00011B                     	ds	10
   838   000125                     _port_register:
   839                           	callstack 0
   840   000125                     	ds	10
   841   00012F                     _tris_register:
   842                           	callstack 0
   843   00012F                     	ds	10
   844   000139                     _timer0_counter:
   845                           	callstack 0
   846   000139                     	ds	8
   847   000141                     _timer0:
   848                           	callstack 0
   849   000141                     	ds	8
   850   000149                     _keypad1:
   851                           	callstack 0
   852   000149                     	ds	8
   853   000151                     _ADC_1:
   854                           	callstack 0
   855   000151                     	ds	7
   856   000158                     _CHR_4_LCD:
   857                           	callstack 0
   858   000158                     	ds	6
   859   00015E                     _intRB_0:
   860                           	callstack 0
   861   00015E                     	ds	6
   862   000164                     _intx_0:
   863                           	callstack 0
   864   000164                     	ds	6
   865   00016A                     _ccp_compare:
   866                           	callstack 0
   867   00016A                     	ds	11
   868   000175                     _timer3_compare:
   869                           	callstack 0
   870   000175                     	ds	6
   871   00017B                     _timer_obj_capture:
   872                           	callstack 0
   873   00017B                     	ds	6
   874                           
   875                           	psect	cstackBANK1
   876   00019F                     __pcstackBANK1:
   877                           	callstack 0
   878   00019F                     ??___fladd:
   879                           
   880                           ; 1 bytes @ 0x0
   881   00019F                     	ds	4
   882   0001A3                     ___fladd@signs:
   883                           	callstack 0
   884                           
   885                           ; 1 bytes @ 0x4
   886   0001A3                     	ds	1
   887   0001A4                     ___fladd@aexp:
   888                           	callstack 0
   889                           
   890                           ; 1 bytes @ 0x5
   891   0001A4                     	ds	1
   892   0001A5                     ___fladd@bexp:
   893                           	callstack 0
   894                           
   895                           ; 1 bytes @ 0x6
   896   0001A5                     	ds	1
   897   0001A6                     ___fladd@grs:
   898                           	callstack 0
   899                           
   900                           ; 1 bytes @ 0x7
   901   0001A6                     	ds	1
   902   0001A7                     ?___fltol:
   903                           	callstack 0
   904   0001A7                     ___fltol@f1:
   905                           	callstack 0
   906                           
   907                           ; 4 bytes @ 0x8
   908   0001A7                     	ds	4
   909   0001AB                     ??___fltol:
   910                           
   911                           ; 1 bytes @ 0xC
   912   0001AB                     	ds	4
   913   0001AF                     mssp_i2c_Init@i2c_obj:
   914                           	callstack 0
   915                           
   916                           ; 2 bytes @ 0x10
   917   0001AF                     	ds	2
   918   0001B1                     ??_mssp_i2c_Init:
   919                           
   920                           ; 1 bytes @ 0x12
   921   0001B1                     	ds	2
   922   0001B3                     mssp_i2c_Init@ret:
   923                           	callstack 0
   924                           
   925                           ; 1 bytes @ 0x14
   926   0001B3                     	ds	1
   927                           
   928                           	psect	cstackCOMRAM
   929   000001                     __pcstackCOMRAM:
   930                           	callstack 0
   931   000001                     ccp_compare_mode_write_value@ccp:
   932                           	callstack 0
   933   000001                     gpio_pin_toggle_logic@pin_config:
   934                           	callstack 0
   935   000001                     Timer3_Write_Value@timer:
   936                           	callstack 0
   937   000001                     i2gpio_pin_write_logic@pin_config:
   938                           	callstack 0
   939                           
   940                           ; 2 bytes @ 0x0
   941   000001                     	ds	2
   942   000003                     ??_gpio_pin_toggle_logic:
   943   000003                     i2gpio_pin_write_logic@logic:
   944                           	callstack 0
   945   000003                     ccp_compare_mode_write_value@compare_value:
   946                           	callstack 0
   947   000003                     Timer3_Write_Value@value:
   948                           	callstack 0
   949                           
   950                           ; 2 bytes @ 0x2
   951   000003                     	ds	1
   952   000004                     ??i2_gpio_pin_write_logic:
   953                           
   954                           ; 1 bytes @ 0x3
   955   000004                     	ds	1
   956   000005                     Timer3_Write_Value@ret:
   957                           	callstack 0
   958                           
   959                           ; 1 bytes @ 0x4
   960   000005                     	ds	1
   961   000006                     ccp_compare_mode_write_value@ret:
   962                           	callstack 0
   963                           
   964                           ; 1 bytes @ 0x5
   965   000006                     	ds	1
   966   000007                     ccp_compare_mode_write_value@capture_temp_value:
   967                           	callstack 0
   968                           
   969                           ; 2 bytes @ 0x6
   970   000007                     	ds	1
   971   000008                     led_toggle@led:
   972                           	callstack 0
   973                           
   974                           ; 2 bytes @ 0x7
   975   000008                     	ds	1
   976   000009                     
   977                           ; 1 bytes @ 0x8
   978   000009                     	ds	1
   979   00000A                     ??_led_toggle:
   980   00000A                     i2led_turn_on@led:
   981                           	callstack 0
   982   00000A                     i2led_turn_off@led:
   983                           	callstack 0
   984                           
   985                           ; 2 bytes @ 0x9
   986   00000A                     	ds	1
   987   00000B                     led_toggle@ret:
   988                           	callstack 0
   989                           
   990                           ; 1 bytes @ 0xA
   991   00000B                     	ds	1
   992   00000C                     ??i2_led_turn_on:
   993   00000C                     ??i2_led_turn_off:
   994   00000C                     led_toggle@config:
   995                           	callstack 0
   996                           
   997                           ; 1 bytes @ 0xB
   998   00000C                     	ds	1
   999   00000D                     i2led_turn_on@ret:
  1000                           	callstack 0
  1001   00000D                     i2led_turn_off@ret:
  1002                           	callstack 0
  1003                           
  1004                           ; 1 bytes @ 0xC
  1005   00000D                     	ds	1
  1006   00000E                     i2led_turn_on@config:
  1007                           	callstack 0
  1008   00000E                     i2led_turn_off@config:
  1009                           	callstack 0
  1010                           
  1011                           ; 1 bytes @ 0xD
  1012   00000E                     	ds	1
  1013   00000F                     RB4_ISR@RB_Source:
  1014                           	callstack 0
  1015   00000F                     RB5_ISR@RB_Source:
  1016                           	callstack 0
  1017   00000F                     RB6_ISR@RB_Source:
  1018                           	callstack 0
  1019   00000F                     RB7_ISR@RB_Source:
  1020                           	callstack 0
  1021                           
  1022                           ; 1 bytes @ 0xE
  1023   00000F                     	ds	1
  1024   000010                     ??_interruptManger:
  1025                           
  1026                           ; 1 bytes @ 0xF
  1027   000010                     	ds	6
  1028   000016                     ?___xxtofl:
  1029                           	callstack 0
  1030   000016                     gpio_pin_direction_intialize@pin_config:
  1031                           	callstack 0
  1032   000016                     gpio_pin_write_logic@pin_config:
  1033                           	callstack 0
  1034   000016                     MSSP_Interrupt_config@i2c_obj:
  1035                           	callstack 0
  1036   000016                     ___xxtofl@val:
  1037                           	callstack 0
  1038                           
  1039                           ; 4 bytes @ 0x15
  1040   000016                     	ds	2
  1041   000018                     ??_gpio_pin_direction_intialize:
  1042   000018                     gpio_pin_write_logic@logic:
  1043                           	callstack 0
  1044                           
  1045                           ; 1 bytes @ 0x17
  1046   000018                     	ds	1
  1047   000019                     ??_gpio_pin_write_logic:
  1048                           
  1049                           ; 1 bytes @ 0x18
  1050   000019                     	ds	1
  1051   00001A                     ??___xxtofl:
  1052                           
  1053                           ; 1 bytes @ 0x19
  1054   00001A                     	ds	4
  1055   00001E                     gpio_pin_direction_intialize@ret:
  1056                           	callstack 0
  1057   00001E                     ___xxtofl@sign:
  1058                           	callstack 0
  1059                           
  1060                           ; 1 bytes @ 0x1D
  1061   00001E                     	ds	1
  1062   00001F                     gpio_pin_write_logic@ret:
  1063                           	callstack 0
  1064   00001F                     ___xxtofl@exp:
  1065                           	callstack 0
  1066                           
  1067                           ; 1 bytes @ 0x1E
  1068   00001F                     	ds	1
  1069   000020                     led_turn_on@led:
  1070                           	callstack 0
  1071   000020                     led_turn_off@led:
  1072                           	callstack 0
  1073   000020                     gpio_pin_intialize@pin_config:
  1074                           	callstack 0
  1075   000020                     ___xxtofl@arg:
  1076                           	callstack 0
  1077                           
  1078                           ; 4 bytes @ 0x1F
  1079   000020                     	ds	2
  1080   000022                     ??_gpio_pin_intialize:
  1081   000022                     ??_led_turn_on:
  1082   000022                     ??_led_turn_off:
  1083                           
  1084                           ; 1 bytes @ 0x21
  1085   000022                     	ds	1
  1086   000023                     led_turn_on@ret:
  1087                           	callstack 0
  1088   000023                     led_turn_off@ret:
  1089                           	callstack 0
  1090   000023                     gpio_pin_intialize@ret:
  1091                           	callstack 0
  1092                           
  1093                           ; 1 bytes @ 0x22
  1094   000023                     	ds	1
  1095   000024                     ?___fldiv:
  1096                           	callstack 0
  1097   000024                     led_turn_on@config:
  1098                           	callstack 0
  1099   000024                     led_turn_off@config:
  1100                           	callstack 0
  1101   000024                     led_intialize@led:
  1102                           	callstack 0
  1103   000024                     ___fldiv@b:
  1104                           	callstack 0
  1105                           
  1106                           ; 4 bytes @ 0x23
  1107   000024                     	ds	2
  1108   000026                     ??_led_intialize:
  1109                           
  1110                           ; 1 bytes @ 0x25
  1111   000026                     	ds	1
  1112   000027                     led_intialize@ret:
  1113                           	callstack 0
  1114                           
  1115                           ; 1 bytes @ 0x26
  1116   000027                     	ds	1
  1117   000028                     led_intialize@config:
  1118                           	callstack 0
  1119   000028                     ___fldiv@a:
  1120                           	callstack 0
  1121                           
  1122                           ; 4 bytes @ 0x27
  1123   000028                     	ds	4
  1124   00002C                     ??___fldiv:
  1125                           
  1126                           ; 1 bytes @ 0x2B
  1127   00002C                     	ds	4
  1128   000030                     ___fldiv@rem:
  1129                           	callstack 0
  1130                           
  1131                           ; 4 bytes @ 0x2F
  1132   000030                     	ds	4
  1133   000034                     ___fldiv@sign:
  1134                           	callstack 0
  1135                           
  1136                           ; 1 bytes @ 0x33
  1137   000034                     	ds	1
  1138   000035                     ___fldiv@new_exp:
  1139                           	callstack 0
  1140                           
  1141                           ; 2 bytes @ 0x34
  1142   000035                     	ds	2
  1143   000037                     ___fldiv@grs:
  1144                           	callstack 0
  1145                           
  1146                           ; 4 bytes @ 0x36
  1147   000037                     	ds	4
  1148   00003B                     ___fldiv@bexp:
  1149                           	callstack 0
  1150                           
  1151                           ; 1 bytes @ 0x3A
  1152   00003B                     	ds	1
  1153   00003C                     ___fldiv@aexp:
  1154                           	callstack 0
  1155                           
  1156                           ; 1 bytes @ 0x3B
  1157   00003C                     	ds	1
  1158   00003D                     ?___fladd:
  1159                           	callstack 0
  1160   00003D                     ___fladd@b:
  1161                           	callstack 0
  1162                           
  1163                           ; 4 bytes @ 0x3C
  1164   00003D                     	ds	4
  1165   000041                     ___fladd@a:
  1166                           	callstack 0
  1167                           
  1168                           ; 4 bytes @ 0x40
  1169   000041                     	ds	4
  1170   000045                     ___fltol@sign1:
  1171                           	callstack 0
  1172                           
  1173                           ; 1 bytes @ 0x44
  1174   000045                     	ds	1
  1175   000046                     ___fltol@exp1:
  1176                           	callstack 0
  1177                           
  1178                           ; 1 bytes @ 0x45
  1179   000046                     	ds	1
  1180   000047                     
  1181                           ; 1 bytes @ 0x46
  1182 ;;
  1183 ;;Main: autosize = 0, tempsize = 0, incstack = 0, save=0
  1184 ;;
  1185 ;; *************** function _main *****************
  1186 ;; Defined at:
  1187 ;;		line 40 in file "Embe.c"
  1188 ;; Parameters:    Size  Location     Type
  1189 ;;		None
  1190 ;; Auto vars:     Size  Location     Type
  1191 ;;		None
  1192 ;; Return value:  Size  Location     Type
  1193 ;;                  2  1534[None  ] int 
  1194 ;; Registers used:
  1195 ;;		wreg, fsr2l, fsr2h, status,2, status,0, prodl, prodh, cstack
  1196 ;; Tracked objects:
  1197 ;;		On entry : 0/0
  1198 ;;		On exit  : 0/0
  1199 ;;		Unchanged: 0/0
  1200 ;; Data sizes:     COMRAM   BANK0   BANK1   BANK2   BANK3   BANK4   BANK5   BANK6   BANK7   BANK8   BANK9  BANK10  BANK1
      +1  BANK12  BANK13  BANK14  BANK15
  1201 ;;      Params:         0       0       0       0       0       0       0       0       0       0       0       0       
      +0       0       0       0       0
  1202 ;;      Locals:         0       0       0       0       0       0       0       0       0       0       0       0       
      +0       0       0       0       0
  1203 ;;      Temps:          0       0       0       0       0       0       0       0       0       0       0       0       
      +0       0       0       0       0
  1204 ;;      Totals:         0       0       0       0       0       0       0       0       0       0       0       0       
      +0       0       0       0       0
  1205 ;;Total ram usage:        0 bytes
  1206 ;; Hardware stack levels required when called: 8
  1207 ;; This function calls:
  1208 ;;		_led_intialize
  1209 ;;		_led_turn_off
  1210 ;;		_led_turn_on
  1211 ;;		_mssp_i2c_Init
  1212 ;; This function is called by:
  1213 ;;		Startup code after reset
  1214 ;; This function uses a non-reentrant model
  1215 ;;
  1216                           
  1217                           	psect	text0
  1218   0024CA                     __ptext0:
  1219                           	callstack 0
  1220   0024CA                     _main:
  1221                           	callstack 23
  1222   0024CA                     
  1223                           ;Embe.c: 43:   i2c_obj.I2C_Report_Write_Collision= ((void*)0) ;
  1224   0024CA  0E00               	movlw	0
  1225   0024CC  0100               	movlb	0	; () banked
  1226   0024CE  6FD2               	movwf	(_i2c_obj+2)& (0+255),b
  1227   0024D0  0E00               	movlw	0
  1228   0024D2  6FD3               	movwf	(_i2c_obj+3)& (0+255),b
  1229                           
  1230                           ;Embe.c: 44:   i2c_obj.I2C_Report_Recive_OverFlow = ((void*)0);
  1231   0024D4  0E00               	movlw	0
  1232   0024D6  6FD6               	movwf	(_i2c_obj+6)& (0+255),b
  1233   0024D8  0E00               	movlw	0
  1234   0024DA  6FD7               	movwf	(_i2c_obj+7)& (0+255),b
  1235                           
  1236                           ;Embe.c: 45:   i2c_obj.I2C_DefaultInterruptHandler= MSSP_I2C_DefaultInterruptHandler ;
  1237   0024DC  0EBA               	movlw	low _MSSP_I2C_DefaultInterruptHandler
  1238   0024DE  6FD4               	movwf	(_i2c_obj+4)& (0+255),b
  1239   0024E0  0E2D               	movlw	high _MSSP_I2C_DefaultInterruptHandler
  1240   0024E2  6FD5               	movwf	(_i2c_obj+5)& (0+255),b
  1241   0024E4                     
  1242                           ; BSR set to: 0
  1243                           ;Embe.c: 46:   i2c_obj.i2c_cfg.i2c_SMBus_control = 0 ;
  1244   0024E4  95DA               	bcf	(_i2c_obj+10)& (0+255),2,b
  1245   0024E6                     
  1246                           ; BSR set to: 0
  1247                           ;Embe.c: 47:   i2c_obj.i2c_cfg.i2c_general_call = 0;
  1248   0024E6  97DA               	bcf	(_i2c_obj+10)& (0+255),3,b
  1249   0024E8                     
  1250                           ; BSR set to: 0
  1251                           ;Embe.c: 48:    i2c_obj.i2c_cfg.i2c_slave_addres = 0x60;
  1252   0024E8  0E60               	movlw	96
  1253   0024EA  6FD9               	movwf	(_i2c_obj+9)& (0+255),b
  1254   0024EC                     
  1255                           ; BSR set to: 0
  1256                           ;Embe.c: 49:   i2c_obj.i2c_cfg.i2c_slew_rate = 0 ;
  1257   0024EC  93DA               	bcf	(_i2c_obj+10)& (0+255),1,b
  1258   0024EE                     
  1259                           ; BSR set to: 0
  1260                           ;Embe.c: 50:   i2c_obj.i2c_cfg.i2c_mode = 0 ;
  1261   0024EE  91DA               	bcf	(_i2c_obj+10)& (0+255),0,b
  1262   0024F0                     
  1263                           ; BSR set to: 0
  1264                           ;Embe.c: 51:   i2c_obj.i2c_cfg.i2c_mode_cfg = 0x06 ;
  1265   0024F0  0E06               	movlw	6
  1266   0024F2  6FD8               	movwf	(_i2c_obj+8)& (0+255),b
  1267   0024F4                     
  1268                           ; BSR set to: 0
  1269                           ;Embe.c: 53:   ret = mssp_i2c_Init(&i2c_obj);
  1270   0024F4  0ED0               	movlw	low _i2c_obj
  1271   0024F6  0101               	movlb	1	; () banked
  1272   0024F8  6FAF               	movwf	mssp_i2c_Init@i2c_obj& (0+255),b
  1273   0024FA  0E00               	movlw	high _i2c_obj
  1274   0024FC  6FB0               	movwf	(mssp_i2c_Init@i2c_obj+1)& (0+255),b
  1275   0024FE  EC44  F00E         	call	_mssp_i2c_Init	;wreg free
  1276   002502  0100               	movlb	0	; () banked
  1277   002504  6FFF               	movwf	_ret& (0+255),b
  1278   002506                     
  1279                           ; BSR set to: 0
  1280                           ;Embe.c: 54:   ret = led_intialize(&led_1);
  1281   002506  0E69               	movlw	low _led_1
  1282   002508  6E24               	movwf	led_intialize@led^0,c
  1283   00250A  0E00               	movlw	high _led_1
  1284   00250C  6E25               	movwf	(led_intialize@led+1)^0,c
  1285   00250E  ECCB  F015         	call	_led_intialize	;wreg free
  1286   002512  0100               	movlb	0	; () banked
  1287   002514  6FFF               	movwf	_ret& (0+255),b
  1288   002516                     l8604:
  1289                           
  1290                           ;Embe.c: 56:       {;Embe.c: 58:           if('a'==slave_rec_data)
  1291   002516  0E61               	movlw	97
  1292   002518  184F               	xorwf	_slave_rec_data^0,w,c	;volatile
  1293   00251A  A4D8               	btfss	status,2,c
  1294   00251C  EF92  F012         	goto	u9241
  1295   002520  EF94  F012         	goto	u9240
  1296   002524                     u9241:
  1297   002524  EF9E  F012         	goto	l8608
  1298   002528                     u9240:
  1299   002528                     
  1300                           ;Embe.c: 59:           {;Embe.c: 60:               ret = led_turn_on(&led_1);
  1301   002528  0E69               	movlw	low _led_1
  1302   00252A  6E20               	movwf	led_turn_on@led^0,c
  1303   00252C  0E00               	movlw	high _led_1
  1304   00252E  6E21               	movwf	(led_turn_on@led+1)^0,c
  1305   002530  ECCB  F014         	call	_led_turn_on	;wreg free
  1306   002534  0100               	movlb	0	; () banked
  1307   002536  6FFF               	movwf	_ret& (0+255),b
  1308                           
  1309                           ;Embe.c: 61:           }
  1310   002538  EF8B  F012         	goto	l8604
  1311   00253C                     l8608:
  1312   00253C  0E63               	movlw	99
  1313   00253E  184F               	xorwf	_slave_rec_data^0,w,c	;volatile
  1314   002540  A4D8               	btfss	status,2,c
  1315   002542  EFA5  F012         	goto	u9251
  1316   002546  EFA7  F012         	goto	u9250
  1317   00254A                     u9251:
  1318   00254A  EF8B  F012         	goto	l8604
  1319   00254E                     u9250:
  1320   00254E                     
  1321                           ;Embe.c: 63:           {;Embe.c: 64:               ret = led_turn_off(&led_1);
  1322   00254E  0E69               	movlw	low _led_1
  1323   002550  6E20               	movwf	led_turn_off@led^0,c
  1324   002552  0E00               	movlw	high _led_1
  1325   002554  6E21               	movwf	(led_turn_off@led+1)^0,c
  1326   002556  EC0B  F015         	call	_led_turn_off	;wreg free
  1327   00255A  0100               	movlb	0	; () banked
  1328   00255C  6FFF               	movwf	_ret& (0+255),b
  1329   00255E  EF8B  F012         	goto	l8604
  1330   002562  EF07  F000         	goto	start
  1331   002566                     __end_of_main:
  1332                           	callstack 0
  1333                           
  1334 ;; *************** function _mssp_i2c_Init *****************
  1335 ;; Defined at:
  1336 ;;		line 17 in file "MCAL_layer/I2C/hal_i2c.c"
  1337 ;; Parameters:    Size  Location     Type
  1338 ;;  i2c_obj         2   16[BANK1 ] PTR const struct .
  1339 ;;		 -> i2c_obj(13), 
  1340 ;; Auto vars:     Size  Location     Type
  1341 ;;  ret             1   20[BANK1 ] unsigned char 
  1342 ;; Return value:  Size  Location     Type
  1343 ;;                  1    wreg      unsigned char 
  1344 ;; Registers used:
  1345 ;;		wreg, fsr2l, fsr2h, status,2, status,0, cstack
  1346 ;; Tracked objects:
  1347 ;;		On entry : 0/0
  1348 ;;		On exit  : 0/0
  1349 ;;		Unchanged: 0/0
  1350 ;; Data sizes:     COMRAM   BANK0   BANK1   BANK2   BANK3   BANK4   BANK5   BANK6   BANK7   BANK8   BANK9  BANK10  BANK1
      +1  BANK12  BANK13  BANK14  BANK15
  1351 ;;      Params:         0       0       2       0       0       0       0       0       0       0       0       0       
      +0       0       0       0       0
  1352 ;;      Locals:         0       0       1       0       0       0       0       0       0       0       0       0       
      +0       0       0       0       0
  1353 ;;      Temps:          0       0       2       0       0       0       0       0       0       0       0       0       
      +0       0       0       0       0
  1354 ;;      Totals:         0       0       5       0       0       0       0       0       0       0       0       0       
      +0       0       0       0       0
  1355 ;;Total ram usage:        5 bytes
  1356 ;; Hardware stack levels used: 1
  1357 ;; Hardware stack levels required when called: 6
  1358 ;; This function calls:
  1359 ;;		_MSSP_Interrupt_config
  1360 ;;		___fladd
  1361 ;;		___fldiv
  1362 ;;		___fltol
  1363 ;;		___xxtofl
  1364 ;; This function is called by:
  1365 ;;		_main
  1366 ;; This function uses a non-reentrant model
  1367 ;;
  1368                           
  1369                           	psect	text1
  1370   001C88                     __ptext1:
  1371                           	callstack 0
  1372   001C88                     _mssp_i2c_Init:
  1373                           	callstack 24
  1374   001C88                     
  1375                           ;MCAL_layer/I2C/hal_i2c.c: 18:      Std_ReturnType ret = (Std_ReturnType)0x01 ;
  1376   001C88  0E01               	movlw	1
  1377   001C8A  0101               	movlb	1	; () banked
  1378   001C8C  6FB3               	movwf	mssp_i2c_Init@ret& (0+255),b
  1379   001C8E                     
  1380                           ; BSR set to: 1
  1381                           ;MCAL_layer/I2C/hal_i2c.c: 19:     if(((void*)0) == i2c_obj)
  1382   001C8E  51AF               	movf	mssp_i2c_Init@i2c_obj& (0+255),w,b
  1383   001C90  11B0               	iorwf	(mssp_i2c_Init@i2c_obj+1)& (0+255),w,b
  1384   001C92  A4D8               	btfss	status,2,c
  1385   001C94  EF4E  F00E         	goto	u9141
  1386   001C98  EF50  F00E         	goto	u9140
  1387   001C9C                     u9141:
  1388   001C9C  EF54  F00E         	goto	l765
  1389   001CA0                     u9140:
  1390   001CA0                     
  1391                           ; BSR set to: 1
  1392                           ;MCAL_layer/I2C/hal_i2c.c: 20:     {;MCAL_layer/I2C/hal_i2c.c: 21:         ret = (Std_Re
      +                          turnType)0x00 ;
  1393   001CA0  0E00               	movlw	0
  1394   001CA2  6FB3               	movwf	mssp_i2c_Init@ret& (0+255),b
  1395                           
  1396                           ;MCAL_layer/I2C/hal_i2c.c: 22:     }
  1397   001CA4  EF3B  F00F         	goto	l8534
  1398   001CA8                     l765:
  1399                           
  1400                           ; BSR set to: 1
  1401                           ;MCAL_layer/I2C/hal_i2c.c: 24:     {;MCAL_layer/I2C/hal_i2c.c: 25:           (SSPCON1bit
      +                          s.SSPEN = 1);
  1402   001CA8  8AC6               	bsf	198,5,c	;volatile
  1403   001CAA                     
  1404                           ; BSR set to: 1
  1405                           ;MCAL_layer/I2C/hal_i2c.c: 26:         if(1==i2c_obj->i2c_cfg.i2c_mode )
  1406   001CAA  EE20 F00A          	lfsr	2,10
  1407   001CAE  51AF               	movf	mssp_i2c_Init@i2c_obj& (0+255),w,b
  1408   001CB0  26D9               	addwf	fsr2l,f,c
  1409   001CB2  51B0               	movf	(mssp_i2c_Init@i2c_obj+1)& (0+255),w,b
  1410   001CB4  22DA               	addwfc	fsr2h,f,c
  1411   001CB6  A0DF               	btfss	indf2,0,c
  1412   001CB8  EF60  F00E         	goto	u9151
  1413   001CBC  EF62  F00E         	goto	u9150
  1414   001CC0                     u9151:
  1415   001CC0  EFB3  F00E         	goto	l8502
  1416   001CC4                     u9150:
  1417   001CC4                     
  1418                           ; BSR set to: 1
  1419                           ;MCAL_layer/I2C/hal_i2c.c: 27:         {;MCAL_layer/I2C/hal_i2c.c: 28:             SSPCO
      +                          N1bits.SSPM = i2c_obj->i2c_cfg.i2c_mode_cfg ;
  1420   001CC4  EE20 F008          	lfsr	2,8
  1421   001CC8  51AF               	movf	mssp_i2c_Init@i2c_obj& (0+255),w,b
  1422   001CCA  26D9               	addwf	fsr2l,f,c
  1423   001CCC  51B0               	movf	(mssp_i2c_Init@i2c_obj+1)& (0+255),w,b
  1424   001CCE  22DA               	addwfc	fsr2h,f,c
  1425   001CD0  50DF               	movf	indf2,w,c
  1426   001CD2  6FB1               	movwf	??_mssp_i2c_Init& (0+255),b
  1427   001CD4  50C6               	movf	198,w,c	;volatile
  1428   001CD6  19B1               	xorwf	??_mssp_i2c_Init& (0+255),w,b
  1429   001CD8  0BF0               	andlw	-16
  1430   001CDA  19B1               	xorwf	??_mssp_i2c_Init& (0+255),w,b
  1431   001CDC  6EC6               	movwf	198,c	;volatile
  1432   001CDE                     
  1433                           ; BSR set to: 1
  1434                           ;MCAL_layer/I2C/hal_i2c.c: 29:             SSPADD = ((8000000UL / 4.0) / i2c_obj->i2c_cl
      +                          ock )-1 ;
  1435   001CDE  0E00               	movlw	0
  1436   001CE0  6E41               	movwf	___fladd@a^0,c
  1437   001CE2  0E00               	movlw	0
  1438   001CE4  6E42               	movwf	(___fladd@a+1)^0,c
  1439   001CE6  0E80               	movlw	128
  1440   001CE8  6E43               	movwf	(___fladd@a+2)^0,c
  1441   001CEA  0EBF               	movlw	191
  1442   001CEC  6E44               	movwf	(___fladd@a+3)^0,c
  1443   001CEE  C1AF  FFD9         	movff	mssp_i2c_Init@i2c_obj,fsr2l
  1444   001CF2  C1B0  FFDA         	movff	mssp_i2c_Init@i2c_obj+1,fsr2h
  1445   001CF6  CFDE F1B1          	movff	postinc2,??_mssp_i2c_Init
  1446   001CFA  CFDD F1B2          	movff	postdec2,??_mssp_i2c_Init+1
  1447   001CFE  C1B1  F016         	movff	??_mssp_i2c_Init,___xxtofl@val
  1448   001D02  C1B2  F017         	movff	??_mssp_i2c_Init+1,___xxtofl@val+1
  1449   001D06  6A18               	clrf	(___xxtofl@val+2)^0,c
  1450   001D08  6A19               	clrf	(___xxtofl@val+3)^0,c
  1451   001D0A  0E00               	movlw	0
  1452   001D0C  EC3E  F00F         	call	___xxtofl
  1453   001D10  C016  F028         	movff	?___xxtofl,___fldiv@a
  1454   001D14  C017  F029         	movff	?___xxtofl+1,___fldiv@a+1
  1455   001D18  C018  F02A         	movff	?___xxtofl+2,___fldiv@a+2
  1456   001D1C  C019  F02B         	movff	?___xxtofl+3,___fldiv@a+3
  1457   001D20  0E00               	movlw	0
  1458   001D22  6E24               	movwf	___fldiv@b^0,c
  1459   001D24  0E24               	movlw	36
  1460   001D26  6E25               	movwf	(___fldiv@b+1)^0,c
  1461   001D28  0EF4               	movlw	244
  1462   001D2A  6E26               	movwf	(___fldiv@b+2)^0,c
  1463   001D2C  0E49               	movlw	73
  1464   001D2E  6E27               	movwf	(___fldiv@b+3)^0,c
  1465   001D30  EC77  F00C         	call	___fldiv	;wreg free
  1466   001D34  C024  F03D         	movff	?___fldiv,___fladd@b
  1467   001D38  C025  F03E         	movff	?___fldiv+1,___fladd@b+1
  1468   001D3C  C026  F03F         	movff	?___fldiv+2,___fladd@b+2
  1469   001D40  C027  F040         	movff	?___fldiv+3,___fladd@b+3
  1470   001D44  EC0B  F008         	call	___fladd	;wreg free
  1471   001D48  C03D  F1A7         	movff	?___fladd,___fltol@f1
  1472   001D4C  C03E  F1A8         	movff	?___fladd+1,___fltol@f1+1
  1473   001D50  C03F  F1A9         	movff	?___fladd+2,___fltol@f1+2
  1474   001D54  C040  F1AA         	movff	?___fladd+3,___fltol@f1+3
  1475   001D58  ECE1  F011         	call	___fltol	;wreg free
  1476   001D5C  0101               	movlb	1	; () banked
  1477   001D5E  51A7               	movf	?___fltol& (0+255),w,b
  1478   001D60  6EC8               	movwf	200,c	;volatile
  1479                           
  1480                           ;MCAL_layer/I2C/hal_i2c.c: 30:         }
  1481   001D62  EFF6  F00E         	goto	l768
  1482   001D66                     l8502:
  1483                           
  1484                           ; BSR set to: 1
  1485   001D66  EE20 F00A          	lfsr	2,10
  1486   001D6A  51AF               	movf	mssp_i2c_Init@i2c_obj& (0+255),w,b
  1487   001D6C  26D9               	addwf	fsr2l,f,c
  1488   001D6E  51B0               	movf	(mssp_i2c_Init@i2c_obj+1)& (0+255),w,b
  1489   001D70  22DA               	addwfc	fsr2h,f,c
  1490   001D72  B0DF               	btfsc	indf2,0,c
  1491   001D74  EFBE  F00E         	goto	u9161
  1492   001D78  EFC0  F00E         	goto	u9160
  1493   001D7C                     u9161:
  1494   001D7C  EFF6  F00E         	goto	l768
  1495   001D80                     u9160:
  1496   001D80                     
  1497                           ; BSR set to: 1
  1498                           ;MCAL_layer/I2C/hal_i2c.c: 32:         {;MCAL_layer/I2C/hal_i2c.c: 33:             if(1 
      +                          ==i2c_obj->i2c_cfg.i2c_general_call)
  1499   001D80  EE20 F00A          	lfsr	2,10
  1500   001D84  51AF               	movf	mssp_i2c_Init@i2c_obj& (0+255),w,b
  1501   001D86  26D9               	addwf	fsr2l,f,c
  1502   001D88  51B0               	movf	(mssp_i2c_Init@i2c_obj+1)& (0+255),w,b
  1503   001D8A  22DA               	addwfc	fsr2h,f,c
  1504   001D8C  A6DF               	btfss	indf2,3,c
  1505   001D8E  EFCB  F00E         	goto	u9171
  1506   001D92  EFCD  F00E         	goto	u9170
  1507   001D96                     u9171:
  1508   001D96  EFD0  F00E         	goto	l8508
  1509   001D9A                     u9170:
  1510   001D9A                     
  1511                           ; BSR set to: 1
  1512                           ;MCAL_layer/I2C/hal_i2c.c: 34:             {;MCAL_layer/I2C/hal_i2c.c: 35:              
      +                             (SSPCON2bits.GCEN = 1);
  1513   001D9A  8EC5               	bsf	197,7,c	;volatile
  1514                           
  1515                           ;MCAL_layer/I2C/hal_i2c.c: 36:             }
  1516   001D9C  EFDE  F00E         	goto	l771
  1517   001DA0                     l8508:
  1518                           
  1519                           ; BSR set to: 1
  1520   001DA0  EE20 F00A          	lfsr	2,10
  1521   001DA4  51AF               	movf	mssp_i2c_Init@i2c_obj& (0+255),w,b
  1522   001DA6  26D9               	addwf	fsr2l,f,c
  1523   001DA8  51B0               	movf	(mssp_i2c_Init@i2c_obj+1)& (0+255),w,b
  1524   001DAA  22DA               	addwfc	fsr2h,f,c
  1525   001DAC  B6DF               	btfsc	indf2,3,c
  1526   001DAE  EFDB  F00E         	goto	u9181
  1527   001DB2  EFDD  F00E         	goto	u9180
  1528   001DB6                     u9181:
  1529   001DB6  EFDE  F00E         	goto	l771
  1530   001DBA                     u9180:
  1531   001DBA                     
  1532                           ; BSR set to: 1
  1533                           ;MCAL_layer/I2C/hal_i2c.c: 38:             {;MCAL_layer/I2C/hal_i2c.c: 39:              
      +                             (SSPCON2bits.GCEN = 0);
  1534   001DBA  9EC5               	bcf	197,7,c	;volatile
  1535   001DBC                     l771:
  1536                           
  1537                           ; BSR set to: 1
  1538                           ;MCAL_layer/I2C/hal_i2c.c: 41:             SSPCON1bits.WCOL = 0 ;
  1539   001DBC  9EC6               	bcf	198,7,c	;volatile
  1540                           
  1541                           ;MCAL_layer/I2C/hal_i2c.c: 42:             SSPCON1bits.SSPOV = 0 ;
  1542   001DBE  9CC6               	bcf	198,6,c	;volatile
  1543                           
  1544                           ;MCAL_layer/I2C/hal_i2c.c: 43:              SSPCON1bits.CKP = 1 ;
  1545   001DC0  88C6               	bsf	198,4,c	;volatile
  1546   001DC2                     
  1547                           ; BSR set to: 1
  1548                           ;MCAL_layer/I2C/hal_i2c.c: 44:             SSPADD = i2c_obj->i2c_cfg.i2c_slave_addres ;
  1549   001DC2  EE20 F009          	lfsr	2,9
  1550   001DC6  51AF               	movf	mssp_i2c_Init@i2c_obj& (0+255),w,b
  1551   001DC8  26D9               	addwf	fsr2l,f,c
  1552   001DCA  51B0               	movf	(mssp_i2c_Init@i2c_obj+1)& (0+255),w,b
  1553   001DCC  22DA               	addwfc	fsr2h,f,c
  1554   001DCE  50DF               	movf	indf2,w,c
  1555   001DD0  6EC8               	movwf	200,c	;volatile
  1556                           
  1557                           ;MCAL_layer/I2C/hal_i2c.c: 45:             SSPCON1bits.SSPM = i2c_obj->i2c_cfg.i2c_mode_
      +                          cfg ;
  1558   001DD2  EE20 F008          	lfsr	2,8
  1559   001DD6  51AF               	movf	mssp_i2c_Init@i2c_obj& (0+255),w,b
  1560   001DD8  26D9               	addwf	fsr2l,f,c
  1561   001DDA  51B0               	movf	(mssp_i2c_Init@i2c_obj+1)& (0+255),w,b
  1562   001DDC  22DA               	addwfc	fsr2h,f,c
  1563   001DDE  50DF               	movf	indf2,w,c
  1564   001DE0  6FB1               	movwf	??_mssp_i2c_Init& (0+255),b
  1565   001DE2  50C6               	movf	198,w,c	;volatile
  1566   001DE4  19B1               	xorwf	??_mssp_i2c_Init& (0+255),w,b
  1567   001DE6  0BF0               	andlw	-16
  1568   001DE8  19B1               	xorwf	??_mssp_i2c_Init& (0+255),w,b
  1569   001DEA  6EC6               	movwf	198,c	;volatile
  1570   001DEC                     l768:
  1571                           
  1572                           ; BSR set to: 1
  1573                           ;MCAL_layer/I2C/hal_i2c.c: 51:         TRISCbits.TRISC3 = 1 ;
  1574   001DEC  8694               	bsf	148,3,c	;volatile
  1575                           
  1576                           ;MCAL_layer/I2C/hal_i2c.c: 52:         TRISCbits.TRISC4 = 1 ;
  1577   001DEE  8894               	bsf	148,4,c	;volatile
  1578   001DF0                     
  1579                           ; BSR set to: 1
  1580                           ;MCAL_layer/I2C/hal_i2c.c: 54:          if(1 ==i2c_obj->i2c_cfg.i2c_slew_rate)
  1581   001DF0  EE20 F00A          	lfsr	2,10
  1582   001DF4  51AF               	movf	mssp_i2c_Init@i2c_obj& (0+255),w,b
  1583   001DF6  26D9               	addwf	fsr2l,f,c
  1584   001DF8  51B0               	movf	(mssp_i2c_Init@i2c_obj+1)& (0+255),w,b
  1585   001DFA  22DA               	addwfc	fsr2h,f,c
  1586   001DFC  A2DF               	btfss	indf2,1,c
  1587   001DFE  EF03  F00F         	goto	u9191
  1588   001E02  EF05  F00F         	goto	u9190
  1589   001E06                     u9191:
  1590   001E06  EF08  F00F         	goto	l8518
  1591   001E0A                     u9190:
  1592   001E0A                     
  1593                           ; BSR set to: 1
  1594                           ;MCAL_layer/I2C/hal_i2c.c: 55:             {;MCAL_layer/I2C/hal_i2c.c: 56:              
      +                             (SSPSTATbits.SMP = 1);
  1595   001E0A  8EC7               	bsf	199,7,c	;volatile
  1596                           
  1597                           ;MCAL_layer/I2C/hal_i2c.c: 57:             }
  1598   001E0C  EF16  F00F         	goto	l8522
  1599   001E10                     l8518:
  1600                           
  1601                           ; BSR set to: 1
  1602   001E10  EE20 F00A          	lfsr	2,10
  1603   001E14  51AF               	movf	mssp_i2c_Init@i2c_obj& (0+255),w,b
  1604   001E16  26D9               	addwf	fsr2l,f,c
  1605   001E18  51B0               	movf	(mssp_i2c_Init@i2c_obj+1)& (0+255),w,b
  1606   001E1A  22DA               	addwfc	fsr2h,f,c
  1607   001E1C  B2DF               	btfsc	indf2,1,c
  1608   001E1E  EF13  F00F         	goto	u9201
  1609   001E22  EF15  F00F         	goto	u9200
  1610   001E26                     u9201:
  1611   001E26  EF16  F00F         	goto	l8522
  1612   001E2A                     u9200:
  1613   001E2A                     
  1614                           ; BSR set to: 1
  1615                           ;MCAL_layer/I2C/hal_i2c.c: 59:             {;MCAL_layer/I2C/hal_i2c.c: 60:              
      +                             (SSPSTATbits.SMP = 0);
  1616   001E2A  9EC7               	bcf	199,7,c	;volatile
  1617   001E2C                     l8522:
  1618                           
  1619                           ; BSR set to: 1
  1620                           ;MCAL_layer/I2C/hal_i2c.c: 63:         if(1 ==i2c_obj->i2c_cfg.i2c_slew_rate)
  1621   001E2C  EE20 F00A          	lfsr	2,10
  1622   001E30  51AF               	movf	mssp_i2c_Init@i2c_obj& (0+255),w,b
  1623   001E32  26D9               	addwf	fsr2l,f,c
  1624   001E34  51B0               	movf	(mssp_i2c_Init@i2c_obj+1)& (0+255),w,b
  1625   001E36  22DA               	addwfc	fsr2h,f,c
  1626   001E38  A2DF               	btfss	indf2,1,c
  1627   001E3A  EF21  F00F         	goto	u9211
  1628   001E3E  EF23  F00F         	goto	u9210
  1629   001E42                     u9211:
  1630   001E42  EF26  F00F         	goto	l8526
  1631   001E46                     u9210:
  1632   001E46                     
  1633                           ; BSR set to: 1
  1634                           ;MCAL_layer/I2C/hal_i2c.c: 64:             {;MCAL_layer/I2C/hal_i2c.c: 65:              
      +                             (SSPSTATbits.SMP = 1);
  1635   001E46  8EC7               	bsf	199,7,c	;volatile
  1636                           
  1637                           ;MCAL_layer/I2C/hal_i2c.c: 66:             }
  1638   001E48  EF34  F00F         	goto	l8530
  1639   001E4C                     l8526:
  1640                           
  1641                           ; BSR set to: 1
  1642   001E4C  EE20 F00A          	lfsr	2,10
  1643   001E50  51AF               	movf	mssp_i2c_Init@i2c_obj& (0+255),w,b
  1644   001E52  26D9               	addwf	fsr2l,f,c
  1645   001E54  51B0               	movf	(mssp_i2c_Init@i2c_obj+1)& (0+255),w,b
  1646   001E56  22DA               	addwfc	fsr2h,f,c
  1647   001E58  B2DF               	btfsc	indf2,1,c
  1648   001E5A  EF31  F00F         	goto	u9221
  1649   001E5E  EF33  F00F         	goto	u9220
  1650   001E62                     u9221:
  1651   001E62  EF34  F00F         	goto	l8530
  1652   001E66                     u9220:
  1653   001E66                     
  1654                           ; BSR set to: 1
  1655                           ;MCAL_layer/I2C/hal_i2c.c: 68:             {;MCAL_layer/I2C/hal_i2c.c: 69:              
      +                             (SSPSTATbits.SMP = 0);
  1656   001E66  9EC7               	bcf	199,7,c	;volatile
  1657   001E68                     l8530:
  1658                           
  1659                           ; BSR set to: 1
  1660                           ;MCAL_layer/I2C/hal_i2c.c: 73:       MSSP_Interrupt_config(i2c_obj);
  1661   001E68  C1AF  F016         	movff	mssp_i2c_Init@i2c_obj,MSSP_Interrupt_config@i2c_obj
  1662   001E6C  C1B0  F017         	movff	mssp_i2c_Init@i2c_obj+1,MSSP_Interrupt_config@i2c_obj+1
  1663   001E70  ECB8  F016         	call	_MSSP_Interrupt_config	;wreg free
  1664   001E74                     
  1665                           ;MCAL_layer/I2C/hal_i2c.c: 76:          (SSPCON1bits.SSPEN = 1);
  1666   001E74  8AC6               	bsf	198,5,c	;volatile
  1667   001E76                     l8534:
  1668                           
  1669                           ;MCAL_layer/I2C/hal_i2c.c: 79:     return ret ;
  1670   001E76  0101               	movlb	1	; () banked
  1671   001E78  51B3               	movf	mssp_i2c_Init@ret& (0+255),w,b
  1672   001E7A                     
  1673                           ; BSR set to: 1
  1674   001E7A  0012               	return		;funcret
  1675   001E7C                     __end_of_mssp_i2c_Init:
  1676                           	callstack 0
  1677                           
  1678 ;; *************** function ___xxtofl *****************
  1679 ;; Defined at:
  1680 ;;		line 10 in file "C:\Program Files\Microchip\xc8\v2.41\pic\sources\c99\common\xxtofl.c"
  1681 ;; Parameters:    Size  Location     Type
  1682 ;;  sign            1    wreg     unsigned char 
  1683 ;;  val             4   21[COMRAM] long 
  1684 ;; Auto vars:     Size  Location     Type
  1685 ;;  sign            1   29[COMRAM] unsigned char 
  1686 ;;  arg             4   31[COMRAM] unsigned long 
  1687 ;;  exp             1   30[COMRAM] unsigned char 
  1688 ;; Return value:  Size  Location     Type
  1689 ;;                  4   21[COMRAM] unsigned char 
  1690 ;; Registers used:
  1691 ;;		wreg, status,2, status,0
  1692 ;; Tracked objects:
  1693 ;;		On entry : 0/0
  1694 ;;		On exit  : 0/0
  1695 ;;		Unchanged: 0/0
  1696 ;; Data sizes:     COMRAM   BANK0   BANK1   BANK2   BANK3   BANK4   BANK5   BANK6   BANK7   BANK8   BANK9  BANK10  BANK1
      +1  BANK12  BANK13  BANK14  BANK15
  1697 ;;      Params:         4       0       0       0       0       0       0       0       0       0       0       0       
      +0       0       0       0       0
  1698 ;;      Locals:         6       0       0       0       0       0       0       0       0       0       0       0       
      +0       0       0       0       0
  1699 ;;      Temps:          4       0       0       0       0       0       0       0       0       0       0       0       
      +0       0       0       0       0
  1700 ;;      Totals:        14       0       0       0       0       0       0       0       0       0       0       0       
      +0       0       0       0       0
  1701 ;;Total ram usage:       14 bytes
  1702 ;; Hardware stack levels used: 1
  1703 ;; Hardware stack levels required when called: 5
  1704 ;; This function calls:
  1705 ;;		Nothing
  1706 ;; This function is called by:
  1707 ;;		_mssp_i2c_Init
  1708 ;;		_USART_BaudRate_Calculation
  1709 ;; This function uses a non-reentrant model
  1710 ;;
  1711                           
  1712                           	psect	text2
  1713   001E7C                     __ptext2:
  1714                           	callstack 0
  1715   001E7C                     ___xxtofl:
  1716                           	callstack 24
  1717                           
  1718                           ; BSR set to: 1
  1719                           ;incstack = 0
  1720                           ;___xxtofl@sign stored from wreg
  1721   001E7C  6E1E               	movwf	___xxtofl@sign^0,c
  1722   001E7E  501E               	movf	___xxtofl@sign^0,w,c
  1723   001E80  B4D8               	btfsc	status,2,c
  1724   001E82  EF45  F00F         	goto	u9041
  1725   001E86  EF47  F00F         	goto	u9040
  1726   001E8A                     u9041:
  1727   001E8A  EF69  F00F         	goto	l2375
  1728   001E8E                     u9040:
  1729   001E8E  BE19               	btfsc	(___xxtofl@val+3)^0,7,c
  1730   001E90  EF4E  F00F         	goto	u9050
  1731   001E94  EF4C  F00F         	goto	u9051
  1732   001E98                     u9051:
  1733   001E98  EF69  F00F         	goto	l2375
  1734   001E9C                     u9050:
  1735   001E9C  C016  F01A         	movff	___xxtofl@val,??___xxtofl
  1736   001EA0  C017  F01B         	movff	___xxtofl@val+1,??___xxtofl+1
  1737   001EA4  C018  F01C         	movff	___xxtofl@val+2,??___xxtofl+2
  1738   001EA8  C019  F01D         	movff	___xxtofl@val+3,??___xxtofl+3
  1739   001EAC  1E1A               	comf	??___xxtofl^0,f,c
  1740   001EAE  1E1B               	comf	(??___xxtofl+1)^0,f,c
  1741   001EB0  1E1C               	comf	(??___xxtofl+2)^0,f,c
  1742   001EB2  1E1D               	comf	(??___xxtofl+3)^0,f,c
  1743   001EB4  2A1A               	incf	??___xxtofl^0,f,c
  1744   001EB6  0E00               	movlw	0
  1745   001EB8  221B               	addwfc	(??___xxtofl+1)^0,f,c
  1746   001EBA  221C               	addwfc	(??___xxtofl+2)^0,f,c
  1747   001EBC  221D               	addwfc	(??___xxtofl+3)^0,f,c
  1748   001EBE  C01A  F020         	movff	??___xxtofl,___xxtofl@arg
  1749   001EC2  C01B  F021         	movff	??___xxtofl+1,___xxtofl@arg+1
  1750   001EC6  C01C  F022         	movff	??___xxtofl+2,___xxtofl@arg+2
  1751   001ECA  C01D  F023         	movff	??___xxtofl+3,___xxtofl@arg+3
  1752   001ECE  EF71  F00F         	goto	l8450
  1753   001ED2                     l2375:
  1754   001ED2  C016  F020         	movff	___xxtofl@val,___xxtofl@arg
  1755   001ED6  C017  F021         	movff	___xxtofl@val+1,___xxtofl@arg+1
  1756   001EDA  C018  F022         	movff	___xxtofl@val+2,___xxtofl@arg+2
  1757   001EDE  C019  F023         	movff	___xxtofl@val+3,___xxtofl@arg+3
  1758   001EE2                     l8450:
  1759   001EE2  5016               	movf	___xxtofl@val^0,w,c
  1760   001EE4  1017               	iorwf	(___xxtofl@val+1)^0,w,c
  1761   001EE6  1018               	iorwf	(___xxtofl@val+2)^0,w,c
  1762   001EE8  1019               	iorwf	(___xxtofl@val+3)^0,w,c
  1763   001EEA  A4D8               	btfss	status,2,c
  1764   001EEC  EF7A  F00F         	goto	u9061
  1765   001EF0  EF7C  F00F         	goto	u9060
  1766   001EF4                     u9061:
  1767   001EF4  EF86  F00F         	goto	l8456
  1768   001EF8                     u9060:
  1769   001EF8  0E00               	movlw	0
  1770   001EFA  6E16               	movwf	?___xxtofl^0,c
  1771   001EFC  0E00               	movlw	0
  1772   001EFE  6E17               	movwf	(?___xxtofl+1)^0,c
  1773   001F00  0E00               	movlw	0
  1774   001F02  6E18               	movwf	(?___xxtofl+2)^0,c
  1775   001F04  0E00               	movlw	0
  1776   001F06  6E19               	movwf	(?___xxtofl+3)^0,c
  1777   001F08  EF17  F010         	goto	l2378
  1778   001F0C                     l8456:
  1779   001F0C  0E96               	movlw	150
  1780   001F0E  6E1F               	movwf	___xxtofl@exp^0,c
  1781   001F10  EF90  F00F         	goto	l8460
  1782   001F14                     l8458:
  1783   001F14  2A1F               	incf	___xxtofl@exp^0,f,c
  1784   001F16  90D8               	bcf	status,0,c
  1785   001F18  3223               	rrcf	(___xxtofl@arg+3)^0,f,c
  1786   001F1A  3222               	rrcf	(___xxtofl@arg+2)^0,f,c
  1787   001F1C  3221               	rrcf	(___xxtofl@arg+1)^0,f,c
  1788   001F1E  3220               	rrcf	___xxtofl@arg^0,f,c
  1789   001F20                     l8460:
  1790   001F20  0E00               	movlw	0
  1791   001F22  1420               	andwf	___xxtofl@arg^0,w,c
  1792   001F24  6E1A               	movwf	??___xxtofl^0,c
  1793   001F26  0E00               	movlw	0
  1794   001F28  1421               	andwf	(___xxtofl@arg+1)^0,w,c
  1795   001F2A  6E1B               	movwf	(??___xxtofl+1)^0,c
  1796   001F2C  0E00               	movlw	0
  1797   001F2E  1422               	andwf	(___xxtofl@arg+2)^0,w,c
  1798   001F30  6E1C               	movwf	(??___xxtofl+2)^0,c
  1799   001F32  0EFE               	movlw	254
  1800   001F34  1423               	andwf	(___xxtofl@arg+3)^0,w,c
  1801   001F36  6E1D               	movwf	(??___xxtofl+3)^0,c
  1802   001F38  501A               	movf	??___xxtofl^0,w,c
  1803   001F3A  101B               	iorwf	(??___xxtofl+1)^0,w,c
  1804   001F3C  101C               	iorwf	(??___xxtofl+2)^0,w,c
  1805   001F3E  101D               	iorwf	(??___xxtofl+3)^0,w,c
  1806   001F40  A4D8               	btfss	status,2,c
  1807   001F42  EFA5  F00F         	goto	u9071
  1808   001F46  EFA7  F00F         	goto	u9070
  1809   001F4A                     u9071:
  1810   001F4A  EF8A  F00F         	goto	l8458
  1811   001F4E                     u9070:
  1812   001F4E  EFB5  F00F         	goto	l2382
  1813   001F52                     l8462:
  1814   001F52  2A1F               	incf	___xxtofl@exp^0,f,c
  1815   001F54  0E01               	movlw	1
  1816   001F56  2620               	addwf	___xxtofl@arg^0,f,c
  1817   001F58  0E00               	movlw	0
  1818   001F5A  2221               	addwfc	(___xxtofl@arg+1)^0,f,c
  1819   001F5C  2222               	addwfc	(___xxtofl@arg+2)^0,f,c
  1820   001F5E  2223               	addwfc	(___xxtofl@arg+3)^0,f,c
  1821   001F60  90D8               	bcf	status,0,c
  1822   001F62  3223               	rrcf	(___xxtofl@arg+3)^0,f,c
  1823   001F64  3222               	rrcf	(___xxtofl@arg+2)^0,f,c
  1824   001F66  3221               	rrcf	(___xxtofl@arg+1)^0,f,c
  1825   001F68  3220               	rrcf	___xxtofl@arg^0,f,c
  1826   001F6A                     l2382:
  1827   001F6A  0E00               	movlw	0
  1828   001F6C  1420               	andwf	___xxtofl@arg^0,w,c
  1829   001F6E  6E1A               	movwf	??___xxtofl^0,c
  1830   001F70  0E00               	movlw	0
  1831   001F72  1421               	andwf	(___xxtofl@arg+1)^0,w,c
  1832   001F74  6E1B               	movwf	(??___xxtofl+1)^0,c
  1833   001F76  0E00               	movlw	0
  1834   001F78  1422               	andwf	(___xxtofl@arg+2)^0,w,c
  1835   001F7A  6E1C               	movwf	(??___xxtofl+2)^0,c
  1836   001F7C  0EFF               	movlw	255
  1837   001F7E  1423               	andwf	(___xxtofl@arg+3)^0,w,c
  1838   001F80  6E1D               	movwf	(??___xxtofl+3)^0,c
  1839   001F82  501A               	movf	??___xxtofl^0,w,c
  1840   001F84  101B               	iorwf	(??___xxtofl+1)^0,w,c
  1841   001F86  101C               	iorwf	(??___xxtofl+2)^0,w,c
  1842   001F88  101D               	iorwf	(??___xxtofl+3)^0,w,c
  1843   001F8A  A4D8               	btfss	status,2,c
  1844   001F8C  EFCA  F00F         	goto	u9081
  1845   001F90  EFCC  F00F         	goto	u9080
  1846   001F94                     u9081:
  1847   001F94  EFA9  F00F         	goto	l8462
  1848   001F98                     u9080:
  1849   001F98  EFD4  F00F         	goto	l8470
  1850   001F9C                     l8468:
  1851   001F9C  061F               	decf	___xxtofl@exp^0,f,c
  1852   001F9E  90D8               	bcf	status,0,c
  1853   001FA0  3620               	rlcf	___xxtofl@arg^0,f,c
  1854   001FA2  3621               	rlcf	(___xxtofl@arg+1)^0,f,c
  1855   001FA4  3622               	rlcf	(___xxtofl@arg+2)^0,f,c
  1856   001FA6  3623               	rlcf	(___xxtofl@arg+3)^0,f,c
  1857   001FA8                     l8470:
  1858   001FA8  BE22               	btfsc	(___xxtofl@arg+2)^0,7,c
  1859   001FAA  EFD9  F00F         	goto	u9091
  1860   001FAE  EFDB  F00F         	goto	u9090
  1861   001FB2                     u9091:
  1862   001FB2  EFE3  F00F         	goto	l2389
  1863   001FB6                     u9090:
  1864   001FB6  0E02               	movlw	2
  1865   001FB8  601F               	cpfslt	___xxtofl@exp^0,c
  1866   001FBA  EFE1  F00F         	goto	u9101
  1867   001FBE  EFE3  F00F         	goto	u9100
  1868   001FC2                     u9101:
  1869   001FC2  EFCE  F00F         	goto	l8468
  1870   001FC6                     u9100:
  1871   001FC6                     l2389:
  1872   001FC6  B01F               	btfsc	___xxtofl@exp^0,0,c
  1873   001FC8  EFE8  F00F         	goto	u9111
  1874   001FCC  EFEA  F00F         	goto	u9110
  1875   001FD0                     u9111:
  1876   001FD0  EFEB  F00F         	goto	l8476
  1877   001FD4                     u9110:
  1878   001FD4  9E22               	bcf	(___xxtofl@arg+2)^0,7,c
  1879   001FD6                     l8476:
  1880   001FD6  90D8               	bcf	status,0,c
  1881   001FD8  321F               	rrcf	___xxtofl@exp^0,f,c
  1882   001FDA  C01F  F01A         	movff	___xxtofl@exp,??___xxtofl
  1883   001FDE  6A1B               	clrf	(??___xxtofl+1)^0,c
  1884   001FE0  6A1C               	clrf	(??___xxtofl+2)^0,c
  1885   001FE2  6A1D               	clrf	(??___xxtofl+3)^0,c
  1886   001FE4  C01A  F01D         	movff	??___xxtofl,??___xxtofl+3
  1887   001FE8  6A1C               	clrf	(??___xxtofl+2)^0,c
  1888   001FEA  6A1B               	clrf	(??___xxtofl+1)^0,c
  1889   001FEC  6A1A               	clrf	??___xxtofl^0,c
  1890   001FEE  501A               	movf	??___xxtofl^0,w,c
  1891   001FF0  1220               	iorwf	___xxtofl@arg^0,f,c
  1892   001FF2  501B               	movf	(??___xxtofl+1)^0,w,c
  1893   001FF4  1221               	iorwf	(___xxtofl@arg+1)^0,f,c
  1894   001FF6  501C               	movf	(??___xxtofl+2)^0,w,c
  1895   001FF8  1222               	iorwf	(___xxtofl@arg+2)^0,f,c
  1896   001FFA  501D               	movf	(??___xxtofl+3)^0,w,c
  1897   001FFC  1223               	iorwf	(___xxtofl@arg+3)^0,f,c
  1898   001FFE  501E               	movf	___xxtofl@sign^0,w,c
  1899   002000  B4D8               	btfsc	status,2,c
  1900   002002  EF05  F010         	goto	u9121
  1901   002006  EF07  F010         	goto	u9120
  1902   00200A                     u9121:
  1903   00200A  EF0F  F010         	goto	l8486
  1904   00200E                     u9120:
  1905   00200E  BE19               	btfsc	(___xxtofl@val+3)^0,7,c
  1906   002010  EF0E  F010         	goto	u9130
  1907   002014  EF0C  F010         	goto	u9131
  1908   002018                     u9131:
  1909   002018  EF0F  F010         	goto	l8486
  1910   00201C                     u9130:
  1911   00201C  8E23               	bsf	(___xxtofl@arg+3)^0,7,c
  1912   00201E                     l8486:
  1913   00201E  C020  F016         	movff	___xxtofl@arg,?___xxtofl
  1914   002022  C021  F017         	movff	___xxtofl@arg+1,?___xxtofl+1
  1915   002026  C022  F018         	movff	___xxtofl@arg+2,?___xxtofl+2
  1916   00202A  C023  F019         	movff	___xxtofl@arg+3,?___xxtofl+3
  1917   00202E                     l2378:
  1918   00202E  0012               	return		;funcret
  1919   002030                     __end_of___xxtofl:
  1920                           	callstack 0
  1921                           
  1922 ;; *************** function ___fltol *****************
  1923 ;; Defined at:
  1924 ;;		line 43 in file "C:\Program Files\Microchip\xc8\v2.41\pic\sources\c99\common\fltol.c"
  1925 ;; Parameters:    Size  Location     Type
  1926 ;;  f1              4    8[BANK1 ] unsigned char 
  1927 ;; Auto vars:     Size  Location     Type
  1928 ;;  exp1            1   69[COMRAM] unsigned char 
  1929 ;;  sign1           1   68[COMRAM] unsigned char 
  1930 ;; Return value:  Size  Location     Type
  1931 ;;                  4    8[BANK1 ] long 
  1932 ;; Registers used:
  1933 ;;		wreg, status,2, status,0
  1934 ;; Tracked objects:
  1935 ;;		On entry : 0/0
  1936 ;;		On exit  : 0/0
  1937 ;;		Unchanged: 0/0
  1938 ;; Data sizes:     COMRAM   BANK0   BANK1   BANK2   BANK3   BANK4   BANK5   BANK6   BANK7   BANK8   BANK9  BANK10  BANK1
      +1  BANK12  BANK13  BANK14  BANK15
  1939 ;;      Params:         0       0       4       0       0       0       0       0       0       0       0       0       
      +0       0       0       0       0
  1940 ;;      Locals:         2       0       0       0       0       0       0       0       0       0       0       0       
      +0       0       0       0       0
  1941 ;;      Temps:          0       0       4       0       0       0       0       0       0       0       0       0       
      +0       0       0       0       0
  1942 ;;      Totals:         2       0       8       0       0       0       0       0       0       0       0       0       
      +0       0       0       0       0
  1943 ;;Total ram usage:       10 bytes
  1944 ;; Hardware stack levels used: 1
  1945 ;; Hardware stack levels required when called: 5
  1946 ;; This function calls:
  1947 ;;		Nothing
  1948 ;; This function is called by:
  1949 ;;		_mssp_i2c_Init
  1950 ;;		_USART_BaudRate_Calculation
  1951 ;; This function uses a non-reentrant model
  1952 ;;
  1953                           
  1954                           	psect	text3
  1955   0023C2                     __ptext3:
  1956                           	callstack 0
  1957   0023C2                     ___fltol:
  1958                           	callstack 24
  1959   0023C2  0101               	movlb	1	; () banked
  1960   0023C4  35A9               	rlcf	(___fltol@f1+2)& (0+255),w,b
  1961   0023C6  35AA               	rlcf	(___fltol@f1+3)& (0+255),w,b
  1962   0023C8  6E46               	movwf	___fltol@exp1^0,c
  1963   0023CA  5046               	movf	___fltol@exp1^0,w,c
  1964   0023CC  A4D8               	btfss	status,2,c
  1965   0023CE  EFEB  F011         	goto	u8971
  1966   0023D2  EFED  F011         	goto	u8970
  1967   0023D6                     u8971:
  1968   0023D6  EFF7  F011         	goto	l8406
  1969   0023DA                     u8970:
  1970   0023DA                     l8402:
  1971                           
  1972                           ; BSR set to: 1
  1973   0023DA  0E00               	movlw	0
  1974   0023DC  6FA7               	movwf	?___fltol& (0+255),b
  1975   0023DE  0E00               	movlw	0
  1976   0023E0  6FA8               	movwf	(?___fltol+1)& (0+255),b
  1977   0023E2  0E00               	movlw	0
  1978   0023E4  6FA9               	movwf	(?___fltol+2)& (0+255),b
  1979   0023E6  0E00               	movlw	0
  1980   0023E8  6FAA               	movwf	(?___fltol+3)& (0+255),b
  1981   0023EA  EF64  F012         	goto	l2017
  1982   0023EE                     l8406:
  1983                           
  1984                           ; BSR set to: 1
  1985   0023EE  C1A7  F1AB         	movff	___fltol@f1,??___fltol
  1986   0023F2  C1A8  F1AC         	movff	___fltol@f1+1,??___fltol+1
  1987   0023F6  C1A9  F1AD         	movff	___fltol@f1+2,??___fltol+2
  1988   0023FA  C1AA  F1AE         	movff	___fltol@f1+3,??___fltol+3
  1989   0023FE  0E20               	movlw	32
  1990   002400  EF07  F012         	goto	u8980
  1991   002404                     u8985:
  1992   002404  90D8               	bcf	status,0,c
  1993   002406  33AE               	rrcf	(??___fltol+3)& (0+255),f,b
  1994   002408  33AD               	rrcf	(??___fltol+2)& (0+255),f,b
  1995   00240A  33AC               	rrcf	(??___fltol+1)& (0+255),f,b
  1996   00240C  33AB               	rrcf	??___fltol& (0+255),f,b
  1997   00240E                     u8980:
  1998   00240E  2EE8               	decfsz	wreg,f,c
  1999   002410  EF02  F012         	goto	u8985
  2000   002414  51AB               	movf	??___fltol& (0+255),w,b
  2001   002416  6E45               	movwf	___fltol@sign1^0,c
  2002   002418                     
  2003                           ; BSR set to: 1
  2004   002418  8FA9               	bsf	(___fltol@f1+2)& (0+255),7,b
  2005   00241A                     
  2006                           ; BSR set to: 1
  2007   00241A  0EFF               	movlw	255
  2008   00241C  17A7               	andwf	___fltol@f1& (0+255),f,b
  2009   00241E  0EFF               	movlw	255
  2010   002420  17A8               	andwf	(___fltol@f1+1)& (0+255),f,b
  2011   002422  0EFF               	movlw	255
  2012   002424  17A9               	andwf	(___fltol@f1+2)& (0+255),f,b
  2013   002426  0E00               	movlw	0
  2014   002428  17AA               	andwf	(___fltol@f1+3)& (0+255),f,b
  2015   00242A                     
  2016                           ; BSR set to: 1
  2017   00242A  0E96               	movlw	150
  2018   00242C  5E46               	subwf	___fltol@exp1^0,f,c
  2019   00242E                     
  2020                           ; BSR set to: 1
  2021   00242E  BE46               	btfsc	___fltol@exp1^0,7,c
  2022   002430  EF1E  F012         	goto	u8990
  2023   002434  EF1C  F012         	goto	u8991
  2024   002438                     u8991:
  2025   002438  EF34  F012         	goto	l8426
  2026   00243C                     u8990:
  2027   00243C                     
  2028                           ; BSR set to: 1
  2029   00243C  5046               	movf	___fltol@exp1^0,w,c
  2030   00243E  0A80               	xorlw	128
  2031   002440  0F97               	addlw	151
  2032   002442  B0D8               	btfsc	status,0,c
  2033   002444  EF26  F012         	goto	u9001
  2034   002448  EF28  F012         	goto	u9000
  2035   00244C                     u9001:
  2036   00244C  EF2A  F012         	goto	l8422
  2037   002450                     u9000:
  2038   002450  EFED  F011         	goto	l8402
  2039   002454                     l8422:
  2040                           
  2041                           ; BSR set to: 1
  2042   002454  90D8               	bcf	status,0,c
  2043   002456  33AA               	rrcf	(___fltol@f1+3)& (0+255),f,b
  2044   002458  33A9               	rrcf	(___fltol@f1+2)& (0+255),f,b
  2045   00245A  33A8               	rrcf	(___fltol@f1+1)& (0+255),f,b
  2046   00245C  33A7               	rrcf	___fltol@f1& (0+255),f,b
  2047   00245E                     
  2048                           ; BSR set to: 1
  2049   00245E  3E46               	incfsz	___fltol@exp1^0,f,c
  2050   002460  EF2A  F012         	goto	l8422
  2051   002464  EF4C  F012         	goto	l8436
  2052   002468                     l8426:
  2053                           
  2054                           ; BSR set to: 1
  2055   002468  0E1F               	movlw	31
  2056   00246A  6446               	cpfsgt	___fltol@exp1^0,c
  2057   00246C  EF3A  F012         	goto	u9011
  2058   002470  EF3C  F012         	goto	u9010
  2059   002474                     u9011:
  2060   002474  EF44  F012         	goto	l8434
  2061   002478                     u9010:
  2062   002478  EFED  F011         	goto	l8402
  2063   00247C                     l8432:
  2064                           
  2065                           ; BSR set to: 1
  2066   00247C  90D8               	bcf	status,0,c
  2067   00247E  37A7               	rlcf	___fltol@f1& (0+255),f,b
  2068   002480  37A8               	rlcf	(___fltol@f1+1)& (0+255),f,b
  2069   002482  37A9               	rlcf	(___fltol@f1+2)& (0+255),f,b
  2070   002484  37AA               	rlcf	(___fltol@f1+3)& (0+255),f,b
  2071   002486  0646               	decf	___fltol@exp1^0,f,c
  2072   002488                     l8434:
  2073                           
  2074                           ; BSR set to: 1
  2075   002488  5046               	movf	___fltol@exp1^0,w,c
  2076   00248A  A4D8               	btfss	status,2,c
  2077   00248C  EF4A  F012         	goto	u9021
  2078   002490  EF4C  F012         	goto	u9020
  2079   002494                     u9021:
  2080   002494  EF3E  F012         	goto	l8432
  2081   002498                     u9020:
  2082   002498                     l8436:
  2083                           
  2084                           ; BSR set to: 1
  2085   002498  5045               	movf	___fltol@sign1^0,w,c
  2086   00249A  B4D8               	btfsc	status,2,c
  2087   00249C  EF52  F012         	goto	u9031
  2088   0024A0  EF54  F012         	goto	u9030
  2089   0024A4                     u9031:
  2090   0024A4  EF5C  F012         	goto	l8440
  2091   0024A8                     u9030:
  2092   0024A8                     
  2093                           ; BSR set to: 1
  2094   0024A8  1FAA               	comf	(___fltol@f1+3)& (0+255),f,b
  2095   0024AA  1FA9               	comf	(___fltol@f1+2)& (0+255),f,b
  2096   0024AC  1FA8               	comf	(___fltol@f1+1)& (0+255),f,b
  2097   0024AE  6DA7               	negf	___fltol@f1& (0+255),b
  2098   0024B0  0E00               	movlw	0
  2099   0024B2  23A8               	addwfc	(___fltol@f1+1)& (0+255),f,b
  2100   0024B4  23A9               	addwfc	(___fltol@f1+2)& (0+255),f,b
  2101   0024B6  23AA               	addwfc	(___fltol@f1+3)& (0+255),f,b
  2102   0024B8                     l8440:
  2103                           
  2104                           ; BSR set to: 1
  2105   0024B8  C1A7  F1A7         	movff	___fltol@f1,?___fltol
  2106   0024BC  C1A8  F1A8         	movff	___fltol@f1+1,?___fltol+1
  2107   0024C0  C1A9  F1A9         	movff	___fltol@f1+2,?___fltol+2
  2108   0024C4  C1AA  F1AA         	movff	___fltol@f1+3,?___fltol+3
  2109   0024C8                     l2017:
  2110                           
  2111                           ; BSR set to: 1
  2112   0024C8  0012               	return		;funcret
  2113   0024CA                     __end_of___fltol:
  2114                           	callstack 0
  2115                           
  2116 ;; *************** function ___fldiv *****************
  2117 ;; Defined at:
  2118 ;;		line 11 in file "C:\Program Files\Microchip\xc8\v2.41\pic\sources\c99\common\sprcdiv.c"
  2119 ;; Parameters:    Size  Location     Type
  2120 ;;  b               4   35[COMRAM] long 
  2121 ;;  a               4   39[COMRAM] long 
  2122 ;; Auto vars:     Size  Location     Type
  2123 ;;  grs             4   54[COMRAM] unsigned long 
  2124 ;;  rem             4   47[COMRAM] unsigned long 
  2125 ;;  new_exp         2   52[COMRAM] short 
  2126 ;;  aexp            1   59[COMRAM] unsigned char 
  2127 ;;  bexp            1   58[COMRAM] unsigned char 
  2128 ;;  sign            1   51[COMRAM] unsigned char 
  2129 ;; Return value:  Size  Location     Type
  2130 ;;                  4   35[COMRAM] unsigned char 
  2131 ;; Registers used:
  2132 ;;		wreg, status,2, status,0
  2133 ;; Tracked objects:
  2134 ;;		On entry : 0/0
  2135 ;;		On exit  : 0/0
  2136 ;;		Unchanged: 0/0
  2137 ;; Data sizes:     COMRAM   BANK0   BANK1   BANK2   BANK3   BANK4   BANK5   BANK6   BANK7   BANK8   BANK9  BANK10  BANK1
      +1  BANK12  BANK13  BANK14  BANK15
  2138 ;;      Params:         8       0       0       0       0       0       0       0       0       0       0       0       
      +0       0       0       0       0
  2139 ;;      Locals:        13       0       0       0       0       0       0       0       0       0       0       0       
      +0       0       0       0       0
  2140 ;;      Temps:          4       0       0       0       0       0       0       0       0       0       0       0       
      +0       0       0       0       0
  2141 ;;      Totals:        25       0       0       0       0       0       0       0       0       0       0       0       
      +0       0       0       0       0
  2142 ;;Total ram usage:       25 bytes
  2143 ;; Hardware stack levels used: 1
  2144 ;; Hardware stack levels required when called: 5
  2145 ;; This function calls:
  2146 ;;		Nothing
  2147 ;; This function is called by:
  2148 ;;		_mssp_i2c_Init
  2149 ;;		_USART_BaudRate_Calculation
  2150 ;; This function uses a non-reentrant model
  2151 ;;
  2152                           
  2153                           	psect	text4
  2154   0018EE                     __ptext4:
  2155                           	callstack 0
  2156   0018EE                     ___fldiv:
  2157                           	callstack 24
  2158   0018EE  5027               	movf	(___fldiv@b+3)^0,w,c
  2159   0018F0  0B80               	andlw	128
  2160   0018F2  6E34               	movwf	___fldiv@sign^0,c
  2161   0018F4  5027               	movf	(___fldiv@b+3)^0,w,c
  2162   0018F6  2427               	addwf	(___fldiv@b+3)^0,w,c
  2163   0018F8  6E3B               	movwf	___fldiv@bexp^0,c
  2164   0018FA  AE26               	btfss	(___fldiv@b+2)^0,7,c
  2165   0018FC  EF82  F00C         	goto	u8741
  2166   001900  EF84  F00C         	goto	u8740
  2167   001904                     u8741:
  2168   001904  EF85  F00C         	goto	l8268
  2169   001908                     u8740:
  2170   001908  803B               	bsf	___fldiv@bexp^0,0,c
  2171   00190A                     l8268:
  2172   00190A  503B               	movf	___fldiv@bexp^0,w,c
  2173   00190C  B4D8               	btfsc	status,2,c
  2174   00190E  EF8B  F00C         	goto	u8751
  2175   001912  EF8D  F00C         	goto	u8750
  2176   001916                     u8751:
  2177   001916  EFA2  F00C         	goto	l8278
  2178   00191A                     u8750:
  2179   00191A  283B               	incf	___fldiv@bexp^0,w,c
  2180   00191C  A4D8               	btfss	status,2,c
  2181   00191E  EF93  F00C         	goto	u8761
  2182   001922  EF95  F00C         	goto	u8760
  2183   001926                     u8761:
  2184   001926  EF9D  F00C         	goto	l8274
  2185   00192A                     u8760:
  2186   00192A  0E00               	movlw	0
  2187   00192C  6E24               	movwf	___fldiv@b^0,c
  2188   00192E  0E00               	movlw	0
  2189   001930  6E25               	movwf	(___fldiv@b+1)^0,c
  2190   001932  0E00               	movlw	0
  2191   001934  6E26               	movwf	(___fldiv@b+2)^0,c
  2192   001936  0E00               	movlw	0
  2193   001938  6E27               	movwf	(___fldiv@b+3)^0,c
  2194   00193A                     l8274:
  2195   00193A  8E26               	bsf	(___fldiv@b+2)^0,7,c
  2196   00193C  0E00               	movlw	0
  2197   00193E  6E27               	movwf	(___fldiv@b+3)^0,c
  2198   001940  EFAA  F00C         	goto	l8280
  2199   001944                     l8278:
  2200   001944  0E00               	movlw	0
  2201   001946  6E24               	movwf	___fldiv@b^0,c
  2202   001948  0E00               	movlw	0
  2203   00194A  6E25               	movwf	(___fldiv@b+1)^0,c
  2204   00194C  0E00               	movlw	0
  2205   00194E  6E26               	movwf	(___fldiv@b+2)^0,c
  2206   001950  0E00               	movlw	0
  2207   001952  6E27               	movwf	(___fldiv@b+3)^0,c
  2208   001954                     l8280:
  2209   001954  502B               	movf	(___fldiv@a+3)^0,w,c
  2210   001956  0B80               	andlw	128
  2211   001958  1A34               	xorwf	___fldiv@sign^0,f,c
  2212   00195A  502B               	movf	(___fldiv@a+3)^0,w,c
  2213   00195C  242B               	addwf	(___fldiv@a+3)^0,w,c
  2214   00195E  6E3C               	movwf	___fldiv@aexp^0,c
  2215   001960  AE2A               	btfss	(___fldiv@a+2)^0,7,c
  2216   001962  EFB5  F00C         	goto	u8771
  2217   001966  EFB7  F00C         	goto	u8770
  2218   00196A                     u8771:
  2219   00196A  EFB8  F00C         	goto	l8288
  2220   00196E                     u8770:
  2221   00196E  803C               	bsf	___fldiv@aexp^0,0,c
  2222   001970                     l8288:
  2223   001970  503C               	movf	___fldiv@aexp^0,w,c
  2224   001972  B4D8               	btfsc	status,2,c
  2225   001974  EFBE  F00C         	goto	u8781
  2226   001978  EFC0  F00C         	goto	u8780
  2227   00197C                     u8781:
  2228   00197C  EFD5  F00C         	goto	l8298
  2229   001980                     u8780:
  2230   001980  283C               	incf	___fldiv@aexp^0,w,c
  2231   001982  A4D8               	btfss	status,2,c
  2232   001984  EFC6  F00C         	goto	u8791
  2233   001988  EFC8  F00C         	goto	u8790
  2234   00198C                     u8791:
  2235   00198C  EFD0  F00C         	goto	l8294
  2236   001990                     u8790:
  2237   001990  0E00               	movlw	0
  2238   001992  6E28               	movwf	___fldiv@a^0,c
  2239   001994  0E00               	movlw	0
  2240   001996  6E29               	movwf	(___fldiv@a+1)^0,c
  2241   001998  0E00               	movlw	0
  2242   00199A  6E2A               	movwf	(___fldiv@a+2)^0,c
  2243   00199C  0E00               	movlw	0
  2244   00199E  6E2B               	movwf	(___fldiv@a+3)^0,c
  2245   0019A0                     l8294:
  2246   0019A0  8E2A               	bsf	(___fldiv@a+2)^0,7,c
  2247   0019A2  0E00               	movlw	0
  2248   0019A4  6E2B               	movwf	(___fldiv@a+3)^0,c
  2249   0019A6  EFDD  F00C         	goto	l8300
  2250   0019AA                     l8298:
  2251   0019AA  0E00               	movlw	0
  2252   0019AC  6E28               	movwf	___fldiv@a^0,c
  2253   0019AE  0E00               	movlw	0
  2254   0019B0  6E29               	movwf	(___fldiv@a+1)^0,c
  2255   0019B2  0E00               	movlw	0
  2256   0019B4  6E2A               	movwf	(___fldiv@a+2)^0,c
  2257   0019B6  0E00               	movlw	0
  2258   0019B8  6E2B               	movwf	(___fldiv@a+3)^0,c
  2259   0019BA                     l8300:
  2260   0019BA  5028               	movf	___fldiv@a^0,w,c
  2261   0019BC  1029               	iorwf	(___fldiv@a+1)^0,w,c
  2262   0019BE  102A               	iorwf	(___fldiv@a+2)^0,w,c
  2263   0019C0  102B               	iorwf	(___fldiv@a+3)^0,w,c
  2264   0019C2  A4D8               	btfss	status,2,c
  2265   0019C4  EFE6  F00C         	goto	u8801
  2266   0019C8  EFE8  F00C         	goto	u8800
  2267   0019CC                     u8801:
  2268   0019CC  EF00  F00D         	goto	l8312
  2269   0019D0                     u8800:
  2270   0019D0  0E00               	movlw	0
  2271   0019D2  6E24               	movwf	___fldiv@b^0,c
  2272   0019D4  0E00               	movlw	0
  2273   0019D6  6E25               	movwf	(___fldiv@b+1)^0,c
  2274   0019D8  0E00               	movlw	0
  2275   0019DA  6E26               	movwf	(___fldiv@b+2)^0,c
  2276   0019DC  0E00               	movlw	0
  2277   0019DE  6E27               	movwf	(___fldiv@b+3)^0,c
  2278   0019E0  0E80               	movlw	128
  2279   0019E2  1226               	iorwf	(___fldiv@b+2)^0,f,c
  2280   0019E4  0E7F               	movlw	127
  2281   0019E6  1227               	iorwf	(___fldiv@b+3)^0,f,c
  2282   0019E8                     l8306:
  2283   0019E8  5034               	movf	___fldiv@sign^0,w,c
  2284   0019EA  1227               	iorwf	(___fldiv@b+3)^0,f,c
  2285   0019EC  C024  F024         	movff	___fldiv@b,?___fldiv
  2286   0019F0  C025  F025         	movff	___fldiv@b+1,?___fldiv+1
  2287   0019F4  C026  F026         	movff	___fldiv@b+2,?___fldiv+2
  2288   0019F8  C027  F027         	movff	___fldiv@b+3,?___fldiv+3
  2289   0019FC  EF43  F00E         	goto	l2302
  2290   001A00                     l8312:
  2291   001A00  503B               	movf	___fldiv@bexp^0,w,c
  2292   001A02  A4D8               	btfss	status,2,c
  2293   001A04  EF06  F00D         	goto	u8811
  2294   001A08  EF08  F00D         	goto	u8810
  2295   001A0C                     u8811:
  2296   001A0C  EF12  F00D         	goto	l8320
  2297   001A10                     u8810:
  2298   001A10  0E00               	movlw	0
  2299   001A12  6E24               	movwf	?___fldiv^0,c
  2300   001A14  0E00               	movlw	0
  2301   001A16  6E25               	movwf	(?___fldiv+1)^0,c
  2302   001A18  0E00               	movlw	0
  2303   001A1A  6E26               	movwf	(?___fldiv+2)^0,c
  2304   001A1C  0E00               	movlw	0
  2305   001A1E  6E27               	movwf	(?___fldiv+3)^0,c
  2306   001A20  EF43  F00E         	goto	l2302
  2307   001A24                     l8320:
  2308   001A24  503C               	movf	___fldiv@aexp^0,w,c
  2309   001A26  C03B  F02C         	movff	___fldiv@bexp,??___fldiv
  2310   001A2A  6A2D               	clrf	(??___fldiv+1)^0,c
  2311   001A2C  5E2C               	subwf	??___fldiv^0,f,c
  2312   001A2E  0E00               	movlw	0
  2313   001A30  5A2D               	subwfb	(??___fldiv+1)^0,f,c
  2314   001A32  0E7F               	movlw	127
  2315   001A34  242C               	addwf	??___fldiv^0,w,c
  2316   001A36  6E35               	movwf	___fldiv@new_exp^0,c
  2317   001A38  0E00               	movlw	0
  2318   001A3A  202D               	addwfc	(??___fldiv+1)^0,w,c
  2319   001A3C  6E36               	movwf	(___fldiv@new_exp+1)^0,c
  2320   001A3E  C024  F030         	movff	___fldiv@b,___fldiv@rem
  2321   001A42  C025  F031         	movff	___fldiv@b+1,___fldiv@rem+1
  2322   001A46  C026  F032         	movff	___fldiv@b+2,___fldiv@rem+2
  2323   001A4A  C027  F033         	movff	___fldiv@b+3,___fldiv@rem+3
  2324   001A4E  0E00               	movlw	0
  2325   001A50  6E24               	movwf	___fldiv@b^0,c
  2326   001A52  0E00               	movlw	0
  2327   001A54  6E25               	movwf	(___fldiv@b+1)^0,c
  2328   001A56  0E00               	movlw	0
  2329   001A58  6E26               	movwf	(___fldiv@b+2)^0,c
  2330   001A5A  0E00               	movlw	0
  2331   001A5C  6E27               	movwf	(___fldiv@b+3)^0,c
  2332   001A5E  0E00               	movlw	0
  2333   001A60  6E37               	movwf	___fldiv@grs^0,c
  2334   001A62  0E00               	movlw	0
  2335   001A64  6E38               	movwf	(___fldiv@grs+1)^0,c
  2336   001A66  0E00               	movlw	0
  2337   001A68  6E39               	movwf	(___fldiv@grs+2)^0,c
  2338   001A6A  0E00               	movlw	0
  2339   001A6C  6E3A               	movwf	(___fldiv@grs+3)^0,c
  2340   001A6E  0E00               	movlw	0
  2341   001A70  6E3C               	movwf	___fldiv@aexp^0,c
  2342   001A72  EF73  F00D         	goto	l2304
  2343   001A76                     l8330:
  2344   001A76  503C               	movf	___fldiv@aexp^0,w,c
  2345   001A78  B4D8               	btfsc	status,2,c
  2346   001A7A  EF41  F00D         	goto	u8821
  2347   001A7E  EF43  F00D         	goto	u8820
  2348   001A82                     u8821:
  2349   001A82  EF5A  F00D         	goto	l8338
  2350   001A86                     u8820:
  2351   001A86  90D8               	bcf	status,0,c
  2352   001A88  3630               	rlcf	___fldiv@rem^0,f,c
  2353   001A8A  3631               	rlcf	(___fldiv@rem+1)^0,f,c
  2354   001A8C  3632               	rlcf	(___fldiv@rem+2)^0,f,c
  2355   001A8E  3633               	rlcf	(___fldiv@rem+3)^0,f,c
  2356   001A90  90D8               	bcf	status,0,c
  2357   001A92  3624               	rlcf	___fldiv@b^0,f,c
  2358   001A94  3625               	rlcf	(___fldiv@b+1)^0,f,c
  2359   001A96  3626               	rlcf	(___fldiv@b+2)^0,f,c
  2360   001A98  3627               	rlcf	(___fldiv@b+3)^0,f,c
  2361   001A9A  AE3A               	btfss	(___fldiv@grs+3)^0,7,c
  2362   001A9C  EF52  F00D         	goto	u8831
  2363   001AA0  EF54  F00D         	goto	u8830
  2364   001AA4                     u8831:
  2365   001AA4  EF55  F00D         	goto	l2307
  2366   001AA8                     u8830:
  2367   001AA8  8024               	bsf	___fldiv@b^0,0,c
  2368   001AAA                     l2307:
  2369   001AAA  90D8               	bcf	status,0,c
  2370   001AAC  3637               	rlcf	___fldiv@grs^0,f,c
  2371   001AAE  3638               	rlcf	(___fldiv@grs+1)^0,f,c
  2372   001AB0  3639               	rlcf	(___fldiv@grs+2)^0,f,c
  2373   001AB2  363A               	rlcf	(___fldiv@grs+3)^0,f,c
  2374   001AB4                     l8338:
  2375   001AB4  5028               	movf	___fldiv@a^0,w,c
  2376   001AB6  5C30               	subwf	___fldiv@rem^0,w,c
  2377   001AB8  5029               	movf	(___fldiv@a+1)^0,w,c
  2378   001ABA  5831               	subwfb	(___fldiv@rem+1)^0,w,c
  2379   001ABC  502A               	movf	(___fldiv@a+2)^0,w,c
  2380   001ABE  5832               	subwfb	(___fldiv@rem+2)^0,w,c
  2381   001AC0  502B               	movf	(___fldiv@a+3)^0,w,c
  2382   001AC2  5833               	subwfb	(___fldiv@rem+3)^0,w,c
  2383   001AC4  A0D8               	btfss	status,0,c
  2384   001AC6  EF67  F00D         	goto	u8841
  2385   001ACA  EF69  F00D         	goto	u8840
  2386   001ACE                     u8841:
  2387   001ACE  EF72  F00D         	goto	l8344
  2388   001AD2                     u8840:
  2389   001AD2  8C3A               	bsf	(___fldiv@grs+3)^0,6,c
  2390   001AD4  5028               	movf	___fldiv@a^0,w,c
  2391   001AD6  5E30               	subwf	___fldiv@rem^0,f,c
  2392   001AD8  5029               	movf	(___fldiv@a+1)^0,w,c
  2393   001ADA  5A31               	subwfb	(___fldiv@rem+1)^0,f,c
  2394   001ADC  502A               	movf	(___fldiv@a+2)^0,w,c
  2395   001ADE  5A32               	subwfb	(___fldiv@rem+2)^0,f,c
  2396   001AE0  502B               	movf	(___fldiv@a+3)^0,w,c
  2397   001AE2  5A33               	subwfb	(___fldiv@rem+3)^0,f,c
  2398   001AE4                     l8344:
  2399   001AE4  2A3C               	incf	___fldiv@aexp^0,f,c
  2400   001AE6                     l2304:
  2401   001AE6  0E19               	movlw	25
  2402   001AE8  643C               	cpfsgt	___fldiv@aexp^0,c
  2403   001AEA  EF79  F00D         	goto	u8851
  2404   001AEE  EF7B  F00D         	goto	u8850
  2405   001AF2                     u8851:
  2406   001AF2  EF3B  F00D         	goto	l8330
  2407   001AF6                     u8850:
  2408   001AF6  5030               	movf	___fldiv@rem^0,w,c
  2409   001AF8  1031               	iorwf	(___fldiv@rem+1)^0,w,c
  2410   001AFA  1032               	iorwf	(___fldiv@rem+2)^0,w,c
  2411   001AFC  1033               	iorwf	(___fldiv@rem+3)^0,w,c
  2412   001AFE  B4D8               	btfsc	status,2,c
  2413   001B00  EF84  F00D         	goto	u8861
  2414   001B04  EF86  F00D         	goto	u8860
  2415   001B08                     u8861:
  2416   001B08  EF9E  F00D         	goto	l8356
  2417   001B0C                     u8860:
  2418   001B0C  8037               	bsf	___fldiv@grs^0,0,c
  2419   001B0E  EF9E  F00D         	goto	l8356
  2420   001B12                     l8350:
  2421   001B12  90D8               	bcf	status,0,c
  2422   001B14  3624               	rlcf	___fldiv@b^0,f,c
  2423   001B16  3625               	rlcf	(___fldiv@b+1)^0,f,c
  2424   001B18  3626               	rlcf	(___fldiv@b+2)^0,f,c
  2425   001B1A  3627               	rlcf	(___fldiv@b+3)^0,f,c
  2426   001B1C  AE3A               	btfss	(___fldiv@grs+3)^0,7,c
  2427   001B1E  EF93  F00D         	goto	u8871
  2428   001B22  EF95  F00D         	goto	u8870
  2429   001B26                     u8871:
  2430   001B26  EF96  F00D         	goto	l2313
  2431   001B2A                     u8870:
  2432   001B2A  8024               	bsf	___fldiv@b^0,0,c
  2433   001B2C                     l2313:
  2434   001B2C  90D8               	bcf	status,0,c
  2435   001B2E  3637               	rlcf	___fldiv@grs^0,f,c
  2436   001B30  3638               	rlcf	(___fldiv@grs+1)^0,f,c
  2437   001B32  3639               	rlcf	(___fldiv@grs+2)^0,f,c
  2438   001B34  363A               	rlcf	(___fldiv@grs+3)^0,f,c
  2439   001B36  0635               	decf	___fldiv@new_exp^0,f,c
  2440   001B38  A0D8               	btfss	status,0,c
  2441   001B3A  0636               	decf	(___fldiv@new_exp+1)^0,f,c
  2442   001B3C                     l8356:
  2443   001B3C  AE26               	btfss	(___fldiv@b+2)^0,7,c
  2444   001B3E  EFA3  F00D         	goto	u8881
  2445   001B42  EFA5  F00D         	goto	u8880
  2446   001B46                     u8881:
  2447   001B46  EF89  F00D         	goto	l8350
  2448   001B4A                     u8880:
  2449   001B4A  0E00               	movlw	0
  2450   001B4C  6E3C               	movwf	___fldiv@aexp^0,c
  2451   001B4E  AE3A               	btfss	(___fldiv@grs+3)^0,7,c
  2452   001B50  EFAC  F00D         	goto	u8891
  2453   001B54  EFAE  F00D         	goto	u8890
  2454   001B58                     u8891:
  2455   001B58  EFD2  F00D         	goto	l2315
  2456   001B5C                     u8890:
  2457   001B5C  0EFF               	movlw	255
  2458   001B5E  1437               	andwf	___fldiv@grs^0,w,c
  2459   001B60  6E2C               	movwf	??___fldiv^0,c
  2460   001B62  0EFF               	movlw	255
  2461   001B64  1438               	andwf	(___fldiv@grs+1)^0,w,c
  2462   001B66  6E2D               	movwf	(??___fldiv+1)^0,c
  2463   001B68  0EFF               	movlw	255
  2464   001B6A  1439               	andwf	(___fldiv@grs+2)^0,w,c
  2465   001B6C  6E2E               	movwf	(??___fldiv+2)^0,c
  2466   001B6E  0E7F               	movlw	127
  2467   001B70  143A               	andwf	(___fldiv@grs+3)^0,w,c
  2468   001B72  6E2F               	movwf	(??___fldiv+3)^0,c
  2469   001B74  502C               	movf	??___fldiv^0,w,c
  2470   001B76  102D               	iorwf	(??___fldiv+1)^0,w,c
  2471   001B78  102E               	iorwf	(??___fldiv+2)^0,w,c
  2472   001B7A  102F               	iorwf	(??___fldiv+3)^0,w,c
  2473   001B7C  B4D8               	btfsc	status,2,c
  2474   001B7E  EFC3  F00D         	goto	u8901
  2475   001B82  EFC5  F00D         	goto	u8900
  2476   001B86                     u8901:
  2477   001B86  EFC9  F00D         	goto	l2316
  2478   001B8A                     u8900:
  2479   001B8A                     l8364:
  2480   001B8A  0E01               	movlw	1
  2481   001B8C  6E3C               	movwf	___fldiv@aexp^0,c
  2482   001B8E  EFD2  F00D         	goto	l2315
  2483   001B92                     l2316:
  2484   001B92  A024               	btfss	___fldiv@b^0,0,c
  2485   001B94  EFCE  F00D         	goto	u8911
  2486   001B98  EFD0  F00D         	goto	u8910
  2487   001B9C                     u8911:
  2488   001B9C  EFD2  F00D         	goto	l2315
  2489   001BA0                     u8910:
  2490   001BA0  EFC5  F00D         	goto	l8364
  2491   001BA4                     l2315:
  2492   001BA4  503C               	movf	___fldiv@aexp^0,w,c
  2493   001BA6  B4D8               	btfsc	status,2,c
  2494   001BA8  EFD8  F00D         	goto	u8921
  2495   001BAC  EFDA  F00D         	goto	u8920
  2496   001BB0                     u8921:
  2497   001BB0  EFFE  F00D         	goto	l8376
  2498   001BB4                     u8920:
  2499   001BB4  0E01               	movlw	1
  2500   001BB6  2624               	addwf	___fldiv@b^0,f,c
  2501   001BB8  0E00               	movlw	0
  2502   001BBA  2225               	addwfc	(___fldiv@b+1)^0,f,c
  2503   001BBC  2226               	addwfc	(___fldiv@b+2)^0,f,c
  2504   001BBE  2227               	addwfc	(___fldiv@b+3)^0,f,c
  2505   001BC0  A027               	btfss	(___fldiv@b+3)^0,0,c
  2506   001BC2  EFE5  F00D         	goto	u8931
  2507   001BC6  EFE7  F00D         	goto	u8930
  2508   001BCA                     u8931:
  2509   001BCA  EFFE  F00D         	goto	l8376
  2510   001BCE                     u8930:
  2511   001BCE  C024  F02C         	movff	___fldiv@b,??___fldiv
  2512   001BD2  C025  F02D         	movff	___fldiv@b+1,??___fldiv+1
  2513   001BD6  C026  F02E         	movff	___fldiv@b+2,??___fldiv+2
  2514   001BDA  C027  F02F         	movff	___fldiv@b+3,??___fldiv+3
  2515   001BDE  342F               	rlcf	(??___fldiv+3)^0,w,c
  2516   001BE0  322F               	rrcf	(??___fldiv+3)^0,f,c
  2517   001BE2  322E               	rrcf	(??___fldiv+2)^0,f,c
  2518   001BE4  322D               	rrcf	(??___fldiv+1)^0,f,c
  2519   001BE6  322C               	rrcf	??___fldiv^0,f,c
  2520   001BE8  C02C  F024         	movff	??___fldiv,___fldiv@b
  2521   001BEC  C02D  F025         	movff	??___fldiv+1,___fldiv@b+1
  2522   001BF0  C02E  F026         	movff	??___fldiv+2,___fldiv@b+2
  2523   001BF4  C02F  F027         	movff	??___fldiv+3,___fldiv@b+3
  2524   001BF8  4A35               	infsnz	___fldiv@new_exp^0,f,c
  2525   001BFA  2A36               	incf	(___fldiv@new_exp+1)^0,f,c
  2526   001BFC                     l8376:
  2527   001BFC  BE36               	btfsc	(___fldiv@new_exp+1)^0,7,c
  2528   001BFE  EF09  F00E         	goto	u8941
  2529   001C02  5036               	movf	(___fldiv@new_exp+1)^0,w,c
  2530   001C04  E108               	bnz	u8940
  2531   001C06  2835               	incf	___fldiv@new_exp^0,w,c
  2532   001C08  A0D8               	btfss	status,0,c
  2533   001C0A  EF09  F00E         	goto	u8941
  2534   001C0E  EF0B  F00E         	goto	u8940
  2535   001C12                     u8941:
  2536   001C12  EF16  F00E         	goto	l8380
  2537   001C16                     u8940:
  2538   001C16  0E00               	movlw	0
  2539   001C18  6E36               	movwf	(___fldiv@new_exp+1)^0,c
  2540   001C1A  6835               	setf	___fldiv@new_exp^0,c
  2541   001C1C  0E00               	movlw	0
  2542   001C1E  6E24               	movwf	___fldiv@b^0,c
  2543   001C20  0E00               	movlw	0
  2544   001C22  6E25               	movwf	(___fldiv@b+1)^0,c
  2545   001C24  0E00               	movlw	0
  2546   001C26  6E26               	movwf	(___fldiv@b+2)^0,c
  2547   001C28  0E00               	movlw	0
  2548   001C2A  6E27               	movwf	(___fldiv@b+3)^0,c
  2549   001C2C                     l8380:
  2550   001C2C  BE36               	btfsc	(___fldiv@new_exp+1)^0,7,c
  2551   001C2E  EF23  F00E         	goto	u8950
  2552   001C32  5036               	movf	(___fldiv@new_exp+1)^0,w,c
  2553   001C34  E106               	bnz	u8951
  2554   001C36  0435               	decf	___fldiv@new_exp^0,w,c
  2555   001C38  B0D8               	btfsc	status,0,c
  2556   001C3A  EF21  F00E         	goto	u8951
  2557   001C3E  EF23  F00E         	goto	u8950
  2558   001C42                     u8951:
  2559   001C42  EF31  F00E         	goto	l8384
  2560   001C46                     u8950:
  2561   001C46  0E00               	movlw	0
  2562   001C48  6E36               	movwf	(___fldiv@new_exp+1)^0,c
  2563   001C4A  0E00               	movlw	0
  2564   001C4C  6E35               	movwf	___fldiv@new_exp^0,c
  2565   001C4E  0E00               	movlw	0
  2566   001C50  6E24               	movwf	___fldiv@b^0,c
  2567   001C52  0E00               	movlw	0
  2568   001C54  6E25               	movwf	(___fldiv@b+1)^0,c
  2569   001C56  0E00               	movlw	0
  2570   001C58  6E26               	movwf	(___fldiv@b+2)^0,c
  2571   001C5A  0E00               	movlw	0
  2572   001C5C  6E27               	movwf	(___fldiv@b+3)^0,c
  2573   001C5E  0E00               	movlw	0
  2574   001C60  6E34               	movwf	___fldiv@sign^0,c
  2575   001C62                     l8384:
  2576   001C62  C035  F03B         	movff	___fldiv@new_exp,___fldiv@bexp
  2577   001C66  A03B               	btfss	___fldiv@bexp^0,0,c
  2578   001C68  EF38  F00E         	goto	u8961
  2579   001C6C  EF3A  F00E         	goto	u8960
  2580   001C70                     u8961:
  2581   001C70  EF3D  F00E         	goto	l8390
  2582   001C74                     u8960:
  2583   001C74  8E26               	bsf	(___fldiv@b+2)^0,7,c
  2584   001C76  EF3E  F00E         	goto	l8392
  2585   001C7A                     l8390:
  2586   001C7A  9E26               	bcf	(___fldiv@b+2)^0,7,c
  2587   001C7C                     l8392:
  2588   001C7C  90D8               	bcf	status,0,c
  2589   001C7E  303B               	rrcf	___fldiv@bexp^0,w,c
  2590   001C80  6E27               	movwf	(___fldiv@b+3)^0,c
  2591   001C82  EFF4  F00C         	goto	l8306
  2592   001C86                     l2302:
  2593   001C86  0012               	return		;funcret
  2594   001C88                     __end_of___fldiv:
  2595                           	callstack 0
  2596                           
  2597 ;; *************** function ___fladd *****************
  2598 ;; Defined at:
  2599 ;;		line 10 in file "C:\Program Files\Microchip\xc8\v2.41\pic\sources\c99\common\sprcadd.c"
  2600 ;; Parameters:    Size  Location     Type
  2601 ;;  b               4   60[COMRAM] unsigned char 
  2602 ;;  a               4   64[COMRAM] unsigned char 
  2603 ;; Auto vars:     Size  Location     Type
  2604 ;;  grs             1    7[BANK1 ] unsigned char 
  2605 ;;  bexp            1    6[BANK1 ] unsigned char 
  2606 ;;  aexp            1    5[BANK1 ] unsigned char 
  2607 ;;  signs           1    4[BANK1 ] unsigned char 
  2608 ;; Return value:  Size  Location     Type
  2609 ;;                  4   60[COMRAM] unsigned char 
  2610 ;; Registers used:
  2611 ;;		wreg, status,2, status,0
  2612 ;; Tracked objects:
  2613 ;;		On entry : 0/0
  2614 ;;		On exit  : 0/0
  2615 ;;		Unchanged: 0/0
  2616 ;; Data sizes:     COMRAM   BANK0   BANK1   BANK2   BANK3   BANK4   BANK5   BANK6   BANK7   BANK8   BANK9  BANK10  BANK1
      +1  BANK12  BANK13  BANK14  BANK15
  2617 ;;      Params:         8       0       0       0       0       0       0       0       0       0       0       0       
      +0       0       0       0       0
  2618 ;;      Locals:         0       0       4       0       0       0       0       0       0       0       0       0       
      +0       0       0       0       0
  2619 ;;      Temps:          0       0       4       0       0       0       0       0       0       0       0       0       
      +0       0       0       0       0
  2620 ;;      Totals:         8       0       8       0       0       0       0       0       0       0       0       0       
      +0       0       0       0       0
  2621 ;;Total ram usage:       16 bytes
  2622 ;; Hardware stack levels used: 1
  2623 ;; Hardware stack levels required when called: 5
  2624 ;; This function calls:
  2625 ;;		Nothing
  2626 ;; This function is called by:
  2627 ;;		_mssp_i2c_Init
  2628 ;;		_USART_BaudRate_Calculation
  2629 ;; This function uses a non-reentrant model
  2630 ;;
  2631                           
  2632                           	psect	text5
  2633   001016                     __ptext5:
  2634                           	callstack 0
  2635   001016                     ___fladd:
  2636                           	callstack 24
  2637   001016  5040               	movf	(___fladd@b+3)^0,w,c
  2638   001018  0B80               	andlw	128
  2639   00101A  0101               	movlb	1	; () banked
  2640   00101C  6FA3               	movwf	___fladd@signs& (0+255),b
  2641   00101E  5040               	movf	(___fladd@b+3)^0,w,c
  2642   001020  2440               	addwf	(___fladd@b+3)^0,w,c
  2643   001022  6FA5               	movwf	___fladd@bexp& (0+255),b
  2644   001024                     
  2645                           ; BSR set to: 1
  2646   001024  AE3F               	btfss	(___fladd@b+2)^0,7,c
  2647   001026  EF17  F008         	goto	u8351
  2648   00102A  EF19  F008         	goto	u8350
  2649   00102E                     u8351:
  2650   00102E  EF1A  F008         	goto	l8066
  2651   001032                     u8350:
  2652   001032                     
  2653                           ; BSR set to: 1
  2654   001032  81A5               	bsf	___fladd@bexp& (0+255),0,b
  2655   001034                     l8066:
  2656                           
  2657                           ; BSR set to: 1
  2658   001034  51A5               	movf	___fladd@bexp& (0+255),w,b
  2659   001036  B4D8               	btfsc	status,2,c
  2660   001038  EF20  F008         	goto	u8361
  2661   00103C  EF22  F008         	goto	u8360
  2662   001040                     u8361:
  2663   001040  EF37  F008         	goto	l8076
  2664   001044                     u8360:
  2665   001044                     
  2666                           ; BSR set to: 1
  2667   001044  29A5               	incf	___fladd@bexp& (0+255),w,b
  2668   001046  A4D8               	btfss	status,2,c
  2669   001048  EF28  F008         	goto	u8371
  2670   00104C  EF2A  F008         	goto	u8370
  2671   001050                     u8371:
  2672   001050  EF32  F008         	goto	l8072
  2673   001054                     u8370:
  2674   001054                     
  2675                           ; BSR set to: 1
  2676   001054  0E00               	movlw	0
  2677   001056  6E3D               	movwf	___fladd@b^0,c
  2678   001058  0E00               	movlw	0
  2679   00105A  6E3E               	movwf	(___fladd@b+1)^0,c
  2680   00105C  0E00               	movlw	0
  2681   00105E  6E3F               	movwf	(___fladd@b+2)^0,c
  2682   001060  0E00               	movlw	0
  2683   001062  6E40               	movwf	(___fladd@b+3)^0,c
  2684   001064                     l8072:
  2685                           
  2686                           ; BSR set to: 1
  2687   001064  8E3F               	bsf	(___fladd@b+2)^0,7,c
  2688   001066                     
  2689                           ; BSR set to: 1
  2690   001066  0E00               	movlw	0
  2691   001068  6E40               	movwf	(___fladd@b+3)^0,c
  2692   00106A  EF3F  F008         	goto	l8078
  2693   00106E                     l8076:
  2694                           
  2695                           ; BSR set to: 1
  2696   00106E  0E00               	movlw	0
  2697   001070  6E3D               	movwf	___fladd@b^0,c
  2698   001072  0E00               	movlw	0
  2699   001074  6E3E               	movwf	(___fladd@b+1)^0,c
  2700   001076  0E00               	movlw	0
  2701   001078  6E3F               	movwf	(___fladd@b+2)^0,c
  2702   00107A  0E00               	movlw	0
  2703   00107C  6E40               	movwf	(___fladd@b+3)^0,c
  2704   00107E                     l8078:
  2705                           
  2706                           ; BSR set to: 1
  2707   00107E  5044               	movf	(___fladd@a+3)^0,w,c
  2708   001080  0B80               	andlw	128
  2709   001082  6FA4               	movwf	___fladd@aexp& (0+255),b
  2710   001084                     
  2711                           ; BSR set to: 1
  2712   001084  51A3               	movf	___fladd@signs& (0+255),w,b
  2713   001086  19A4               	xorwf	___fladd@aexp& (0+255),w,b
  2714   001088  B4D8               	btfsc	status,2,c
  2715   00108A  EF49  F008         	goto	u8381
  2716   00108E  EF4B  F008         	goto	u8380
  2717   001092                     u8381:
  2718   001092  EF4C  F008         	goto	l8084
  2719   001096                     u8380:
  2720   001096                     
  2721                           ; BSR set to: 1
  2722   001096  8DA3               	bsf	___fladd@signs& (0+255),6,b
  2723   001098                     l8084:
  2724                           
  2725                           ; BSR set to: 1
  2726   001098  5044               	movf	(___fladd@a+3)^0,w,c
  2727   00109A  2444               	addwf	(___fladd@a+3)^0,w,c
  2728   00109C  6FA4               	movwf	___fladd@aexp& (0+255),b
  2729   00109E                     
  2730                           ; BSR set to: 1
  2731   00109E  AE43               	btfss	(___fladd@a+2)^0,7,c
  2732   0010A0  EF54  F008         	goto	u8391
  2733   0010A4  EF56  F008         	goto	u8390
  2734   0010A8                     u8391:
  2735   0010A8  EF57  F008         	goto	l8090
  2736   0010AC                     u8390:
  2737   0010AC                     
  2738                           ; BSR set to: 1
  2739   0010AC  81A4               	bsf	___fladd@aexp& (0+255),0,b
  2740   0010AE                     l8090:
  2741                           
  2742                           ; BSR set to: 1
  2743   0010AE  51A4               	movf	___fladd@aexp& (0+255),w,b
  2744   0010B0  B4D8               	btfsc	status,2,c
  2745   0010B2  EF5D  F008         	goto	u8401
  2746   0010B6  EF5F  F008         	goto	u8400
  2747   0010BA                     u8401:
  2748   0010BA  EF74  F008         	goto	l8100
  2749   0010BE                     u8400:
  2750   0010BE                     
  2751                           ; BSR set to: 1
  2752   0010BE  29A4               	incf	___fladd@aexp& (0+255),w,b
  2753   0010C0  A4D8               	btfss	status,2,c
  2754   0010C2  EF65  F008         	goto	u8411
  2755   0010C6  EF67  F008         	goto	u8410
  2756   0010CA                     u8411:
  2757   0010CA  EF6F  F008         	goto	l8096
  2758   0010CE                     u8410:
  2759   0010CE                     
  2760                           ; BSR set to: 1
  2761   0010CE  0E00               	movlw	0
  2762   0010D0  6E41               	movwf	___fladd@a^0,c
  2763   0010D2  0E00               	movlw	0
  2764   0010D4  6E42               	movwf	(___fladd@a+1)^0,c
  2765   0010D6  0E00               	movlw	0
  2766   0010D8  6E43               	movwf	(___fladd@a+2)^0,c
  2767   0010DA  0E00               	movlw	0
  2768   0010DC  6E44               	movwf	(___fladd@a+3)^0,c
  2769   0010DE                     l8096:
  2770                           
  2771                           ; BSR set to: 1
  2772   0010DE  8E43               	bsf	(___fladd@a+2)^0,7,c
  2773   0010E0                     
  2774                           ; BSR set to: 1
  2775   0010E0  0E00               	movlw	0
  2776   0010E2  6E44               	movwf	(___fladd@a+3)^0,c
  2777   0010E4  EF7C  F008         	goto	l8102
  2778   0010E8                     l8100:
  2779                           
  2780                           ; BSR set to: 1
  2781   0010E8  0E00               	movlw	0
  2782   0010EA  6E41               	movwf	___fladd@a^0,c
  2783   0010EC  0E00               	movlw	0
  2784   0010EE  6E42               	movwf	(___fladd@a+1)^0,c
  2785   0010F0  0E00               	movlw	0
  2786   0010F2  6E43               	movwf	(___fladd@a+2)^0,c
  2787   0010F4  0E00               	movlw	0
  2788   0010F6  6E44               	movwf	(___fladd@a+3)^0,c
  2789   0010F8                     l8102:
  2790                           
  2791                           ; BSR set to: 1
  2792   0010F8  51A5               	movf	___fladd@bexp& (0+255),w,b
  2793   0010FA  5DA4               	subwf	___fladd@aexp& (0+255),w,b
  2794   0010FC  B0D8               	btfsc	status,0,c
  2795   0010FE  EF83  F008         	goto	u8421
  2796   001102  EF85  F008         	goto	u8420
  2797   001106                     u8421:
  2798   001106  EFAC  F008         	goto	l8138
  2799   00110A                     u8420:
  2800   00110A                     
  2801                           ; BSR set to: 1
  2802   00110A  ADA3               	btfss	___fladd@signs& (0+255),6,b
  2803   00110C  EF8A  F008         	goto	u8431
  2804   001110  EF8C  F008         	goto	u8430
  2805   001114                     u8431:
  2806   001114  EF8E  F008         	goto	l8108
  2807   001118                     u8430:
  2808   001118                     
  2809                           ; BSR set to: 1
  2810   001118  0E80               	movlw	128
  2811   00111A  1BA3               	xorwf	___fladd@signs& (0+255),f,b
  2812   00111C                     l8108:
  2813                           
  2814                           ; BSR set to: 1
  2815   00111C  C1A5  F1A6         	movff	___fladd@bexp,___fladd@grs
  2816   001120                     
  2817                           ; BSR set to: 1
  2818   001120  C1A4  F1A5         	movff	___fladd@aexp,___fladd@bexp
  2819   001124                     
  2820                           ; BSR set to: 1
  2821   001124  C1A6  F1A4         	movff	___fladd@grs,___fladd@aexp
  2822   001128                     
  2823                           ; BSR set to: 1
  2824   001128  C03D  F1A6         	movff	___fladd@b,___fladd@grs
  2825   00112C                     
  2826                           ; BSR set to: 1
  2827   00112C  C041  F03D         	movff	___fladd@a,___fladd@b
  2828   001130                     
  2829                           ; BSR set to: 1
  2830   001130  C1A6  F041         	movff	___fladd@grs,___fladd@a
  2831   001134                     
  2832                           ; BSR set to: 1
  2833   001134  C03E  F1A6         	movff	___fladd@b+1,___fladd@grs
  2834   001138                     
  2835                           ; BSR set to: 1
  2836   001138  C042  F03E         	movff	___fladd@a+1,___fladd@b+1
  2837   00113C                     
  2838                           ; BSR set to: 1
  2839   00113C  C1A6  F042         	movff	___fladd@grs,___fladd@a+1
  2840   001140                     
  2841                           ; BSR set to: 1
  2842   001140  C03F  F1A6         	movff	___fladd@b+2,___fladd@grs
  2843   001144                     
  2844                           ; BSR set to: 1
  2845   001144  C043  F03F         	movff	___fladd@a+2,___fladd@b+2
  2846   001148                     
  2847                           ; BSR set to: 1
  2848   001148  C1A6  F043         	movff	___fladd@grs,___fladd@a+2
  2849   00114C                     
  2850                           ; BSR set to: 1
  2851   00114C  C040  F1A6         	movff	___fladd@b+3,___fladd@grs
  2852   001150                     
  2853                           ; BSR set to: 1
  2854   001150  C044  F040         	movff	___fladd@a+3,___fladd@b+3
  2855   001154                     
  2856                           ; BSR set to: 1
  2857   001154  C1A6  F044         	movff	___fladd@grs,___fladd@a+3
  2858   001158                     l8138:
  2859                           
  2860                           ; BSR set to: 1
  2861   001158  0E00               	movlw	0
  2862   00115A  6FA6               	movwf	___fladd@grs& (0+255),b
  2863   00115C                     
  2864                           ; BSR set to: 1
  2865   00115C  51A5               	movf	___fladd@bexp& (0+255),w,b
  2866   00115E  C1A4  F19F         	movff	___fladd@aexp,??___fladd
  2867   001162  6BA0               	clrf	(??___fladd+1)& (0+255),b
  2868   001164  5F9F               	subwf	??___fladd& (0+255),f,b
  2869   001166  0E00               	movlw	0
  2870   001168  5BA0               	subwfb	(??___fladd+1)& (0+255),f,b
  2871   00116A  BFA0               	btfsc	(??___fladd+1)& (0+255),7,b
  2872   00116C  EFC1  F008         	goto	u8441
  2873   001170  51A0               	movf	(??___fladd+1)& (0+255),w,b
  2874   001172  E109               	bnz	u8440
  2875   001174  0E1A               	movlw	26
  2876   001176  5D9F               	subwf	??___fladd& (0+255),w,b
  2877   001178  A0D8               	btfss	status,0,c
  2878   00117A  EFC1  F008         	goto	u8441
  2879   00117E  EFC3  F008         	goto	u8440
  2880   001182                     u8441:
  2881   001182  EFFA  F008         	goto	l2249
  2882   001186                     u8440:
  2883   001186                     
  2884                           ; BSR set to: 1
  2885   001186  503D               	movf	___fladd@b^0,w,c
  2886   001188  103E               	iorwf	(___fladd@b+1)^0,w,c
  2887   00118A  103F               	iorwf	(___fladd@b+2)^0,w,c
  2888   00118C  1040               	iorwf	(___fladd@b+3)^0,w,c
  2889   00118E  A4D8               	btfss	status,2,c
  2890   001190  EFCC  F008         	goto	u8451
  2891   001194  EFCF  F008         	goto	u8450
  2892   001198                     u8451:
  2893   001198  0E01               	movlw	1
  2894   00119A  EFD0  F008         	goto	u8460
  2895   00119E                     u8450:
  2896   00119E  0E00               	movlw	0
  2897   0011A0                     u8460:
  2898   0011A0  6FA6               	movwf	___fladd@grs& (0+255),b
  2899   0011A2                     
  2900                           ; BSR set to: 1
  2901   0011A2  0E00               	movlw	0
  2902   0011A4  6E3D               	movwf	___fladd@b^0,c
  2903   0011A6  0E00               	movlw	0
  2904   0011A8  6E3E               	movwf	(___fladd@b+1)^0,c
  2905   0011AA  0E00               	movlw	0
  2906   0011AC  6E3F               	movwf	(___fladd@b+2)^0,c
  2907   0011AE  0E00               	movlw	0
  2908   0011B0  6E40               	movwf	(___fladd@b+3)^0,c
  2909   0011B2                     
  2910                           ; BSR set to: 1
  2911   0011B2  C1A4  F1A5         	movff	___fladd@aexp,___fladd@bexp
  2912   0011B6  EF03  F009         	goto	l2248
  2913   0011BA                     l2250:
  2914                           
  2915                           ; BSR set to: 1
  2916   0011BA  A1A6               	btfss	___fladd@grs& (0+255),0,b
  2917   0011BC  EFE2  F008         	goto	u8471
  2918   0011C0  EFE4  F008         	goto	u8470
  2919   0011C4                     u8471:
  2920   0011C4  EFEA  F008         	goto	l8150
  2921   0011C8                     u8470:
  2922   0011C8                     
  2923                           ; BSR set to: 1
  2924   0011C8  90D8               	bcf	status,0,c
  2925   0011CA  31A6               	rrcf	___fladd@grs& (0+255),w,b
  2926   0011CC  0901               	iorlw	1
  2927   0011CE  6FA6               	movwf	___fladd@grs& (0+255),b
  2928   0011D0  EFEC  F008         	goto	l8152
  2929   0011D4                     l8150:
  2930                           
  2931                           ; BSR set to: 1
  2932   0011D4  90D8               	bcf	status,0,c
  2933   0011D6  33A6               	rrcf	___fladd@grs& (0+255),f,b
  2934   0011D8                     l8152:
  2935                           
  2936                           ; BSR set to: 1
  2937   0011D8  A03D               	btfss	___fladd@b^0,0,c
  2938   0011DA  EFF1  F008         	goto	u8481
  2939   0011DE  EFF3  F008         	goto	u8480
  2940   0011E2                     u8481:
  2941   0011E2  EFF4  F008         	goto	l8156
  2942   0011E6                     u8480:
  2943   0011E6                     
  2944                           ; BSR set to: 1
  2945   0011E6  8FA6               	bsf	___fladd@grs& (0+255),7,b
  2946   0011E8                     l8156:
  2947                           
  2948                           ; BSR set to: 1
  2949   0011E8  3440               	rlcf	(___fladd@b+3)^0,w,c
  2950   0011EA  3240               	rrcf	(___fladd@b+3)^0,f,c
  2951   0011EC  323F               	rrcf	(___fladd@b+2)^0,f,c
  2952   0011EE  323E               	rrcf	(___fladd@b+1)^0,f,c
  2953   0011F0  323D               	rrcf	___fladd@b^0,f,c
  2954   0011F2                     
  2955                           ; BSR set to: 1
  2956   0011F2  2BA5               	incf	___fladd@bexp& (0+255),f,b
  2957   0011F4                     l2249:
  2958                           
  2959                           ; BSR set to: 1
  2960   0011F4  51A4               	movf	___fladd@aexp& (0+255),w,b
  2961   0011F6  5DA5               	subwf	___fladd@bexp& (0+255),w,b
  2962   0011F8  A0D8               	btfss	status,0,c
  2963   0011FA  EF01  F009         	goto	u8491
  2964   0011FE  EF03  F009         	goto	u8490
  2965   001202                     u8491:
  2966   001202  EFDD  F008         	goto	l2250
  2967   001206                     u8490:
  2968   001206                     l2248:
  2969                           
  2970                           ; BSR set to: 1
  2971   001206  BDA3               	btfsc	___fladd@signs& (0+255),6,b
  2972   001208  EF08  F009         	goto	u8501
  2973   00120C  EF0A  F009         	goto	u8500
  2974   001210                     u8501:
  2975   001210  EF4A  F009         	goto	l8184
  2976   001214                     u8500:
  2977   001214                     
  2978                           ; BSR set to: 1
  2979   001214  51A5               	movf	___fladd@bexp& (0+255),w,b
  2980   001216  A4D8               	btfss	status,2,c
  2981   001218  EF10  F009         	goto	u8511
  2982   00121C  EF12  F009         	goto	u8510
  2983   001220                     u8511:
  2984   001220  EF1C  F009         	goto	l8166
  2985   001224                     u8510:
  2986   001224                     
  2987                           ; BSR set to: 1
  2988   001224  0E00               	movlw	0
  2989   001226  6E3D               	movwf	?___fladd^0,c
  2990   001228  0E00               	movlw	0
  2991   00122A  6E3E               	movwf	(?___fladd+1)^0,c
  2992   00122C  0E00               	movlw	0
  2993   00122E  6E3F               	movwf	(?___fladd+2)^0,c
  2994   001230  0E00               	movlw	0
  2995   001232  6E40               	movwf	(?___fladd+3)^0,c
  2996   001234  EF6B  F00A         	goto	l2257
  2997   001238                     l8166:
  2998                           
  2999                           ; BSR set to: 1
  3000   001238  5041               	movf	___fladd@a^0,w,c
  3001   00123A  263D               	addwf	___fladd@b^0,f,c
  3002   00123C  5042               	movf	(___fladd@a+1)^0,w,c
  3003   00123E  223E               	addwfc	(___fladd@b+1)^0,f,c
  3004   001240  5043               	movf	(___fladd@a+2)^0,w,c
  3005   001242  223F               	addwfc	(___fladd@b+2)^0,f,c
  3006   001244  5044               	movf	(___fladd@a+3)^0,w,c
  3007   001246  2240               	addwfc	(___fladd@b+3)^0,f,c
  3008   001248                     
  3009                           ; BSR set to: 1
  3010   001248  A040               	btfss	(___fladd@b+3)^0,0,c
  3011   00124A  EF29  F009         	goto	u8521
  3012   00124E  EF2B  F009         	goto	u8520
  3013   001252                     u8521:
  3014   001252  EFD7  F009         	goto	l8220
  3015   001256                     u8520:
  3016   001256                     
  3017                           ; BSR set to: 1
  3018   001256  A1A6               	btfss	___fladd@grs& (0+255),0,b
  3019   001258  EF30  F009         	goto	u8531
  3020   00125C  EF32  F009         	goto	u8530
  3021   001260                     u8531:
  3022   001260  EF38  F009         	goto	l8174
  3023   001264                     u8530:
  3024   001264                     
  3025                           ; BSR set to: 1
  3026   001264  90D8               	bcf	status,0,c
  3027   001266  31A6               	rrcf	___fladd@grs& (0+255),w,b
  3028   001268  0901               	iorlw	1
  3029   00126A  6FA6               	movwf	___fladd@grs& (0+255),b
  3030   00126C  EF3A  F009         	goto	l8176
  3031   001270                     l8174:
  3032                           
  3033                           ; BSR set to: 1
  3034   001270  90D8               	bcf	status,0,c
  3035   001272  33A6               	rrcf	___fladd@grs& (0+255),f,b
  3036   001274                     l8176:
  3037                           
  3038                           ; BSR set to: 1
  3039   001274  A03D               	btfss	___fladd@b^0,0,c
  3040   001276  EF3F  F009         	goto	u8541
  3041   00127A  EF41  F009         	goto	u8540
  3042   00127E                     u8541:
  3043   00127E  EF42  F009         	goto	l8180
  3044   001282                     u8540:
  3045   001282                     
  3046                           ; BSR set to: 1
  3047   001282  8FA6               	bsf	___fladd@grs& (0+255),7,b
  3048   001284                     l8180:
  3049                           
  3050                           ; BSR set to: 1
  3051   001284  3440               	rlcf	(___fladd@b+3)^0,w,c
  3052   001286  3240               	rrcf	(___fladd@b+3)^0,f,c
  3053   001288  323F               	rrcf	(___fladd@b+2)^0,f,c
  3054   00128A  323E               	rrcf	(___fladd@b+1)^0,f,c
  3055   00128C  323D               	rrcf	___fladd@b^0,f,c
  3056   00128E                     
  3057                           ; BSR set to: 1
  3058   00128E  2BA5               	incf	___fladd@bexp& (0+255),f,b
  3059   001290  EFD7  F009         	goto	l8220
  3060   001294                     l8184:
  3061                           
  3062                           ; BSR set to: 1
  3063   001294  5041               	movf	___fladd@a^0,w,c
  3064   001296  5C3D               	subwf	___fladd@b^0,w,c
  3065   001298  5042               	movf	(___fladd@a+1)^0,w,c
  3066   00129A  583E               	subwfb	(___fladd@b+1)^0,w,c
  3067   00129C  5043               	movf	(___fladd@a+2)^0,w,c
  3068   00129E  583F               	subwfb	(___fladd@b+2)^0,w,c
  3069   0012A0  5040               	movf	(___fladd@b+3)^0,w,c
  3070   0012A2  0A80               	xorlw	128
  3071   0012A4  6F9F               	movwf	??___fladd& (0+255),b
  3072   0012A6  5044               	movf	(___fladd@a+3)^0,w,c
  3073   0012A8  0A80               	xorlw	128
  3074   0012AA  599F               	subwfb	??___fladd& (0+255),w,b
  3075   0012AC  B0D8               	btfsc	status,0,c
  3076   0012AE  EF5B  F009         	goto	u8551
  3077   0012B2  EF5D  F009         	goto	u8550
  3078   0012B6                     u8551:
  3079   0012B6  EF88  F009         	goto	l8194
  3080   0012BA                     u8550:
  3081   0012BA                     
  3082                           ; BSR set to: 1
  3083   0012BA  503D               	movf	___fladd@b^0,w,c
  3084   0012BC  5C41               	subwf	___fladd@a^0,w,c
  3085   0012BE  6F9F               	movwf	??___fladd& (0+255),b
  3086   0012C0  503E               	movf	(___fladd@b+1)^0,w,c
  3087   0012C2  5842               	subwfb	(___fladd@a+1)^0,w,c
  3088   0012C4  6FA0               	movwf	(??___fladd+1)& (0+255),b
  3089   0012C6  503F               	movf	(___fladd@b+2)^0,w,c
  3090   0012C8  5843               	subwfb	(___fladd@a+2)^0,w,c
  3091   0012CA  6FA1               	movwf	(??___fladd+2)& (0+255),b
  3092   0012CC  5040               	movf	(___fladd@b+3)^0,w,c
  3093   0012CE  5844               	subwfb	(___fladd@a+3)^0,w,c
  3094   0012D0  6FA2               	movwf	(??___fladd+3)& (0+255),b
  3095   0012D2  0EFF               	movlw	255
  3096   0012D4  259F               	addwf	??___fladd& (0+255),w,b
  3097   0012D6  6E3D               	movwf	___fladd@b^0,c
  3098   0012D8  0EFF               	movlw	255
  3099   0012DA  21A0               	addwfc	(??___fladd+1)& (0+255),w,b
  3100   0012DC  6E3E               	movwf	(___fladd@b+1)^0,c
  3101   0012DE  0EFF               	movlw	255
  3102   0012E0  21A1               	addwfc	(??___fladd+2)& (0+255),w,b
  3103   0012E2  6E3F               	movwf	(___fladd@b+2)^0,c
  3104   0012E4  0EFF               	movlw	255
  3105   0012E6  21A2               	addwfc	(??___fladd+3)& (0+255),w,b
  3106   0012E8  6E40               	movwf	(___fladd@b+3)^0,c
  3107   0012EA  0E80               	movlw	128
  3108   0012EC  1BA3               	xorwf	___fladd@signs& (0+255),f,b
  3109   0012EE                     
  3110                           ; BSR set to: 1
  3111   0012EE  6DA6               	negf	___fladd@grs& (0+255),b
  3112   0012F0                     
  3113                           ; BSR set to: 1
  3114   0012F0  51A6               	movf	___fladd@grs& (0+255),w,b
  3115   0012F2  A4D8               	btfss	status,2,c
  3116   0012F4  EF7E  F009         	goto	u8561
  3117   0012F8  EF80  F009         	goto	u8560
  3118   0012FC                     u8561:
  3119   0012FC  EF90  F009         	goto	l2265
  3120   001300                     u8560:
  3121   001300                     
  3122                           ; BSR set to: 1
  3123   001300  0E01               	movlw	1
  3124   001302  263D               	addwf	___fladd@b^0,f,c
  3125   001304  0E00               	movlw	0
  3126   001306  223E               	addwfc	(___fladd@b+1)^0,f,c
  3127   001308  223F               	addwfc	(___fladd@b+2)^0,f,c
  3128   00130A  2240               	addwfc	(___fladd@b+3)^0,f,c
  3129   00130C  EF90  F009         	goto	l2265
  3130   001310                     l8194:
  3131                           
  3132                           ; BSR set to: 1
  3133   001310  5041               	movf	___fladd@a^0,w,c
  3134   001312  5E3D               	subwf	___fladd@b^0,f,c
  3135   001314  5042               	movf	(___fladd@a+1)^0,w,c
  3136   001316  5A3E               	subwfb	(___fladd@b+1)^0,f,c
  3137   001318  5043               	movf	(___fladd@a+2)^0,w,c
  3138   00131A  5A3F               	subwfb	(___fladd@b+2)^0,f,c
  3139   00131C  5044               	movf	(___fladd@a+3)^0,w,c
  3140   00131E  5A40               	subwfb	(___fladd@b+3)^0,f,c
  3141   001320                     l2265:
  3142                           
  3143                           ; BSR set to: 1
  3144   001320  503D               	movf	___fladd@b^0,w,c
  3145   001322  103E               	iorwf	(___fladd@b+1)^0,w,c
  3146   001324  103F               	iorwf	(___fladd@b+2)^0,w,c
  3147   001326  1040               	iorwf	(___fladd@b+3)^0,w,c
  3148   001328  A4D8               	btfss	status,2,c
  3149   00132A  EF99  F009         	goto	u8571
  3150   00132E  EF9B  F009         	goto	u8570
  3151   001332                     u8571:
  3152   001332  EFD0  F009         	goto	l8218
  3153   001336                     u8570:
  3154   001336                     
  3155                           ; BSR set to: 1
  3156   001336  51A6               	movf	___fladd@grs& (0+255),w,b
  3157   001338  A4D8               	btfss	status,2,c
  3158   00133A  EFA1  F009         	goto	u8581
  3159   00133E  EFA3  F009         	goto	u8580
  3160   001342                     u8581:
  3161   001342  EFD0  F009         	goto	l8218
  3162   001346                     u8580:
  3163   001346                     
  3164                           ; BSR set to: 1
  3165   001346  0E00               	movlw	0
  3166   001348  6E3D               	movwf	?___fladd^0,c
  3167   00134A  0E00               	movlw	0
  3168   00134C  6E3E               	movwf	(?___fladd+1)^0,c
  3169   00134E  0E00               	movlw	0
  3170   001350  6E3F               	movwf	(?___fladd+2)^0,c
  3171   001352  0E00               	movlw	0
  3172   001354  6E40               	movwf	(?___fladd+3)^0,c
  3173   001356  EF6B  F00A         	goto	l2257
  3174   00135A                     l8202:
  3175                           
  3176                           ; BSR set to: 1
  3177   00135A  90D8               	bcf	status,0,c
  3178   00135C  363D               	rlcf	___fladd@b^0,f,c
  3179   00135E  363E               	rlcf	(___fladd@b+1)^0,f,c
  3180   001360  363F               	rlcf	(___fladd@b+2)^0,f,c
  3181   001362  3640               	rlcf	(___fladd@b+3)^0,f,c
  3182   001364                     
  3183                           ; BSR set to: 1
  3184   001364  AFA6               	btfss	___fladd@grs& (0+255),7,b
  3185   001366  EFB7  F009         	goto	u8591
  3186   00136A  EFB9  F009         	goto	u8590
  3187   00136E                     u8591:
  3188   00136E  EFBA  F009         	goto	l8208
  3189   001372                     u8590:
  3190   001372                     
  3191                           ; BSR set to: 1
  3192   001372  803D               	bsf	___fladd@b^0,0,c
  3193   001374                     l8208:
  3194                           
  3195                           ; BSR set to: 1
  3196   001374  A1A6               	btfss	___fladd@grs& (0+255),0,b
  3197   001376  EFBF  F009         	goto	u8601
  3198   00137A  EFC1  F009         	goto	u8600
  3199   00137E                     u8601:
  3200   00137E  EFC5  F009         	goto	l8212
  3201   001382                     u8600:
  3202   001382                     
  3203                           ; BSR set to: 1
  3204   001382  80D8               	bsf	status,0,c
  3205   001384  37A6               	rlcf	___fladd@grs& (0+255),f,b
  3206   001386  EFC7  F009         	goto	l8214
  3207   00138A                     l8212:
  3208                           
  3209                           ; BSR set to: 1
  3210   00138A  90D8               	bcf	status,0,c
  3211   00138C  37A6               	rlcf	___fladd@grs& (0+255),f,b
  3212   00138E                     l8214:
  3213                           
  3214                           ; BSR set to: 1
  3215   00138E  51A5               	movf	___fladd@bexp& (0+255),w,b
  3216   001390  B4D8               	btfsc	status,2,c
  3217   001392  EFCD  F009         	goto	u8611
  3218   001396  EFCF  F009         	goto	u8610
  3219   00139A                     u8611:
  3220   00139A  EFD0  F009         	goto	l8218
  3221   00139E                     u8610:
  3222   00139E                     
  3223                           ; BSR set to: 1
  3224   00139E  07A5               	decf	___fladd@bexp& (0+255),f,b
  3225   0013A0                     l8218:
  3226                           
  3227                           ; BSR set to: 1
  3228   0013A0  AE3F               	btfss	(___fladd@b+2)^0,7,c
  3229   0013A2  EFD5  F009         	goto	u8621
  3230   0013A6  EFD7  F009         	goto	u8620
  3231   0013AA                     u8621:
  3232   0013AA  EFAD  F009         	goto	l8202
  3233   0013AE                     u8620:
  3234   0013AE                     l8220:
  3235                           
  3236                           ; BSR set to: 1
  3237   0013AE  0E00               	movlw	0
  3238   0013B0  6FA4               	movwf	___fladd@aexp& (0+255),b
  3239   0013B2                     
  3240                           ; BSR set to: 1
  3241   0013B2  AFA6               	btfss	___fladd@grs& (0+255),7,b
  3242   0013B4  EFDE  F009         	goto	u8631
  3243   0013B8  EFE0  F009         	goto	u8630
  3244   0013BC                     u8631:
  3245   0013BC  EFF8  F009         	goto	l2274
  3246   0013C0                     u8630:
  3247   0013C0                     
  3248                           ; BSR set to: 1
  3249   0013C0  C1A6  F19F         	movff	___fladd@grs,??___fladd
  3250   0013C4  0E7F               	movlw	127
  3251   0013C6  179F               	andwf	??___fladd& (0+255),f,b
  3252   0013C8  B4D8               	btfsc	status,2,c
  3253   0013CA  EFE9  F009         	goto	u8641
  3254   0013CE  EFEB  F009         	goto	u8640
  3255   0013D2                     u8641:
  3256   0013D2  EFEF  F009         	goto	l2275
  3257   0013D6                     u8640:
  3258   0013D6                     l8226:
  3259                           
  3260                           ; BSR set to: 1
  3261   0013D6  0E01               	movlw	1
  3262   0013D8  6FA4               	movwf	___fladd@aexp& (0+255),b
  3263   0013DA  EFF8  F009         	goto	l2274
  3264   0013DE                     l2275:
  3265                           
  3266                           ; BSR set to: 1
  3267   0013DE  A03D               	btfss	___fladd@b^0,0,c
  3268   0013E0  EFF4  F009         	goto	u8651
  3269   0013E4  EFF6  F009         	goto	u8650
  3270   0013E8                     u8651:
  3271   0013E8  EFF8  F009         	goto	l2274
  3272   0013EC                     u8650:
  3273   0013EC  EFEB  F009         	goto	l8226
  3274   0013F0                     l2274:
  3275                           
  3276                           ; BSR set to: 1
  3277   0013F0  51A4               	movf	___fladd@aexp& (0+255),w,b
  3278   0013F2  B4D8               	btfsc	status,2,c
  3279   0013F4  EFFE  F009         	goto	u8661
  3280   0013F8  EF00  F00A         	goto	u8660
  3281   0013FC                     u8661:
  3282   0013FC  EF2B  F00A         	goto	l8238
  3283   001400                     u8660:
  3284   001400                     
  3285                           ; BSR set to: 1
  3286   001400  0E01               	movlw	1
  3287   001402  263D               	addwf	___fladd@b^0,f,c
  3288   001404  0E00               	movlw	0
  3289   001406  223E               	addwfc	(___fladd@b+1)^0,f,c
  3290   001408  223F               	addwfc	(___fladd@b+2)^0,f,c
  3291   00140A  2240               	addwfc	(___fladd@b+3)^0,f,c
  3292   00140C                     
  3293                           ; BSR set to: 1
  3294   00140C  A040               	btfss	(___fladd@b+3)^0,0,c
  3295   00140E  EF0B  F00A         	goto	u8671
  3296   001412  EF0D  F00A         	goto	u8670
  3297   001416                     u8671:
  3298   001416  EF2B  F00A         	goto	l8238
  3299   00141A                     u8670:
  3300   00141A                     
  3301                           ; BSR set to: 1
  3302   00141A  C03D  F19F         	movff	___fladd@b,??___fladd
  3303   00141E  C03E  F1A0         	movff	___fladd@b+1,??___fladd+1
  3304   001422  C03F  F1A1         	movff	___fladd@b+2,??___fladd+2
  3305   001426  C040  F1A2         	movff	___fladd@b+3,??___fladd+3
  3306   00142A  35A2               	rlcf	(??___fladd+3)& (0+255),w,b
  3307   00142C  33A2               	rrcf	(??___fladd+3)& (0+255),f,b
  3308   00142E  33A1               	rrcf	(??___fladd+2)& (0+255),f,b
  3309   001430  33A0               	rrcf	(??___fladd+1)& (0+255),f,b
  3310   001432  339F               	rrcf	??___fladd& (0+255),f,b
  3311   001434  C19F  F03D         	movff	??___fladd,___fladd@b
  3312   001438  C1A0  F03E         	movff	??___fladd+1,___fladd@b+1
  3313   00143C  C1A1  F03F         	movff	??___fladd+2,___fladd@b+2
  3314   001440  C1A2  F040         	movff	??___fladd+3,___fladd@b+3
  3315   001444  29A5               	incf	___fladd@bexp& (0+255),w,b
  3316   001446  B4D8               	btfsc	status,2,c
  3317   001448  EF28  F00A         	goto	u8681
  3318   00144C  EF2A  F00A         	goto	u8680
  3319   001450                     u8681:
  3320   001450  EF2B  F00A         	goto	l8238
  3321   001454                     u8680:
  3322   001454                     
  3323                           ; BSR set to: 1
  3324   001454  2BA5               	incf	___fladd@bexp& (0+255),f,b
  3325   001456                     l8238:
  3326                           
  3327                           ; BSR set to: 1
  3328   001456  29A5               	incf	___fladd@bexp& (0+255),w,b
  3329   001458  B4D8               	btfsc	status,2,c
  3330   00145A  EF31  F00A         	goto	u8691
  3331   00145E  EF33  F00A         	goto	u8690
  3332   001462                     u8691:
  3333   001462  EF3B  F00A         	goto	l8242
  3334   001466                     u8690:
  3335   001466                     
  3336                           ; BSR set to: 1
  3337   001466  51A5               	movf	___fladd@bexp& (0+255),w,b
  3338   001468  A4D8               	btfss	status,2,c
  3339   00146A  EF39  F00A         	goto	u8701
  3340   00146E  EF3B  F00A         	goto	u8700
  3341   001472                     u8701:
  3342   001472  EF4D  F00A         	goto	l8246
  3343   001476                     u8700:
  3344   001476                     l8242:
  3345                           
  3346                           ; BSR set to: 1
  3347   001476  0E00               	movlw	0
  3348   001478  6E3D               	movwf	___fladd@b^0,c
  3349   00147A  0E00               	movlw	0
  3350   00147C  6E3E               	movwf	(___fladd@b+1)^0,c
  3351   00147E  0E00               	movlw	0
  3352   001480  6E3F               	movwf	(___fladd@b+2)^0,c
  3353   001482  0E00               	movlw	0
  3354   001484  6E40               	movwf	(___fladd@b+3)^0,c
  3355   001486  51A5               	movf	___fladd@bexp& (0+255),w,b
  3356   001488  A4D8               	btfss	status,2,c
  3357   00148A  EF49  F00A         	goto	u8711
  3358   00148E  EF4B  F00A         	goto	u8710
  3359   001492                     u8711:
  3360   001492  EF4D  F00A         	goto	l8246
  3361   001496                     u8710:
  3362   001496                     
  3363                           ; BSR set to: 1
  3364   001496  0E00               	movlw	0
  3365   001498  6FA3               	movwf	___fladd@signs& (0+255),b
  3366   00149A                     l8246:
  3367                           
  3368                           ; BSR set to: 1
  3369   00149A  A1A5               	btfss	___fladd@bexp& (0+255),0,b
  3370   00149C  EF52  F00A         	goto	u8721
  3371   0014A0  EF54  F00A         	goto	u8720
  3372   0014A4                     u8721:
  3373   0014A4  EF57  F00A         	goto	l8250
  3374   0014A8                     u8720:
  3375   0014A8                     
  3376                           ; BSR set to: 1
  3377   0014A8  8E3F               	bsf	(___fladd@b+2)^0,7,c
  3378   0014AA  EF58  F00A         	goto	l8252
  3379   0014AE                     l8250:
  3380                           
  3381                           ; BSR set to: 1
  3382   0014AE  9E3F               	bcf	(___fladd@b+2)^0,7,c
  3383   0014B0                     l8252:
  3384                           
  3385                           ; BSR set to: 1
  3386   0014B0  90D8               	bcf	status,0,c
  3387   0014B2  31A5               	rrcf	___fladd@bexp& (0+255),w,b
  3388   0014B4  6E40               	movwf	(___fladd@b+3)^0,c
  3389   0014B6                     
  3390                           ; BSR set to: 1
  3391   0014B6  AFA3               	btfss	___fladd@signs& (0+255),7,b
  3392   0014B8  EF60  F00A         	goto	u8731
  3393   0014BC  EF62  F00A         	goto	u8730
  3394   0014C0                     u8731:
  3395   0014C0  EF63  F00A         	goto	l8258
  3396   0014C4                     u8730:
  3397   0014C4                     
  3398                           ; BSR set to: 1
  3399   0014C4  8E40               	bsf	(___fladd@b+3)^0,7,c
  3400   0014C6                     l8258:
  3401                           
  3402                           ; BSR set to: 1
  3403   0014C6  C03D  F03D         	movff	___fladd@b,?___fladd
  3404   0014CA  C03E  F03E         	movff	___fladd@b+1,?___fladd+1
  3405   0014CE  C03F  F03F         	movff	___fladd@b+2,?___fladd+2
  3406   0014D2  C040  F040         	movff	___fladd@b+3,?___fladd+3
  3407   0014D6                     l2257:
  3408                           
  3409                           ; BSR set to: 1
  3410   0014D6  0012               	return		;funcret
  3411   0014D8                     __end_of___fladd:
  3412                           	callstack 0
  3413                           
  3414 ;; *************** function _MSSP_Interrupt_config *****************
  3415 ;; Defined at:
  3416 ;;		line 208 in file "MCAL_layer/I2C/hal_i2c.c"
  3417 ;; Parameters:    Size  Location     Type
  3418 ;;  i2c_obj         2   21[COMRAM] PTR const struct .
  3419 ;;		 -> i2c_obj(13), 
  3420 ;; Auto vars:     Size  Location     Type
  3421 ;;		None
  3422 ;; Return value:  Size  Location     Type
  3423 ;;                  1    wreg      void 
  3424 ;; Registers used:
  3425 ;;		wreg, fsr2l, fsr2h, status,2, status,0
  3426 ;; Tracked objects:
  3427 ;;		On entry : 0/0
  3428 ;;		On exit  : 0/0
  3429 ;;		Unchanged: 0/0
  3430 ;; Data sizes:     COMRAM   BANK0   BANK1   BANK2   BANK3   BANK4   BANK5   BANK6   BANK7   BANK8   BANK9  BANK10  BANK1
      +1  BANK12  BANK13  BANK14  BANK15
  3431 ;;      Params:         2       0       0       0       0       0       0       0       0       0       0       0       
      +0       0       0       0       0
  3432 ;;      Locals:         0       0       0       0       0       0       0       0       0       0       0       0       
      +0       0       0       0       0
  3433 ;;      Temps:          0       0       0       0       0       0       0       0       0       0       0       0       
      +0       0       0       0       0
  3434 ;;      Totals:         2       0       0       0       0       0       0       0       0       0       0       0       
      +0       0       0       0       0
  3435 ;;Total ram usage:        2 bytes
  3436 ;; Hardware stack levels used: 1
  3437 ;; Hardware stack levels required when called: 5
  3438 ;; This function calls:
  3439 ;;		Nothing
  3440 ;; This function is called by:
  3441 ;;		_mssp_i2c_Init
  3442 ;; This function uses a non-reentrant model
  3443 ;;
  3444                           
  3445                           	psect	text6
  3446   002D70                     __ptext6:
  3447                           	callstack 0
  3448   002D70                     _MSSP_Interrupt_config:
  3449                           	callstack 24
  3450   002D70                     
  3451                           ;MCAL_layer/I2C/hal_i2c.c: 210:      (PIE2bits.BCLIE = 1);
  3452   002D70  86A0               	bsf	160,3,c	;volatile
  3453                           
  3454                           ;MCAL_layer/I2C/hal_i2c.c: 211:         (PIE1bits.SSPIE = 1);
  3455   002D72  869D               	bsf	157,3,c	;volatile
  3456                           
  3457                           ;MCAL_layer/I2C/hal_i2c.c: 212:         (PIR1bits.SSPIF= 0);
  3458   002D74  969E               	bcf	158,3,c	;volatile
  3459                           
  3460                           ;MCAL_layer/I2C/hal_i2c.c: 213:         (PIR2bits.BCLIF= 0);
  3461   002D76  96A1               	bcf	161,3,c	;volatile
  3462   002D78                     
  3463                           ;MCAL_layer/I2C/hal_i2c.c: 214:       I2C_Report_Write_Collision_InterruptHandler = i2c_
      +                          obj->I2C_Report_Write_Collision;
  3464   002D78  EE20 F002          	lfsr	2,2
  3465   002D7C  5016               	movf	MSSP_Interrupt_config@i2c_obj^0,w,c
  3466   002D7E  26D9               	addwf	fsr2l,f,c
  3467   002D80  5017               	movf	(MSSP_Interrupt_config@i2c_obj+1)^0,w,c
  3468   002D82  22DA               	addwfc	fsr2h,f,c
  3469   002D84  CFDE F0C4          	movff	postinc2,_I2C_Report_Write_Collision_InterruptHandler
  3470   002D88  CFDD F0C5          	movff	postdec2,_I2C_Report_Write_Collision_InterruptHandler+1
  3471                           
  3472                           ;MCAL_layer/I2C/hal_i2c.c: 215:       I2C_DefaultInterruptHandler = i2c_obj->I2C_Default
      +                          InterruptHandler ;
  3473   002D8C  EE20 F004          	lfsr	2,4
  3474   002D90  5016               	movf	MSSP_Interrupt_config@i2c_obj^0,w,c
  3475   002D92  26D9               	addwf	fsr2l,f,c
  3476   002D94  5017               	movf	(MSSP_Interrupt_config@i2c_obj+1)^0,w,c
  3477   002D96  22DA               	addwfc	fsr2h,f,c
  3478   002D98  CFDE F0C2          	movff	postinc2,_I2C_DefaultInterruptHandler
  3479   002D9C  CFDD F0C3          	movff	postdec2,_I2C_DefaultInterruptHandler+1
  3480                           
  3481                           ;MCAL_layer/I2C/hal_i2c.c: 216:       I2C_Report_Recive_OverFlow_InterruptHandler =i2c_o
      +                          bj->I2C_Report_Recive_OverFlow ;
  3482   002DA0  EE20 F006          	lfsr	2,6
  3483   002DA4  5016               	movf	MSSP_Interrupt_config@i2c_obj^0,w,c
  3484   002DA6  26D9               	addwf	fsr2l,f,c
  3485   002DA8  5017               	movf	(MSSP_Interrupt_config@i2c_obj+1)^0,w,c
  3486   002DAA  22DA               	addwfc	fsr2h,f,c
  3487   002DAC  CFDE F0C0          	movff	postinc2,_I2C_Report_Recive_OverFlow_InterruptHandler
  3488   002DB0  CFDD F0C1          	movff	postdec2,_I2C_Report_Recive_OverFlow_InterruptHandler+1
  3489   002DB4                     
  3490                           ;MCAL_layer/I2C/hal_i2c.c: 242: (INTCONbits.PEIE = 1) ;
  3491   002DB4  8CF2               	bsf	242,6,c	;volatile
  3492   002DB6                     
  3493                           ;MCAL_layer/I2C/hal_i2c.c: 243: (INTCONbits.GIE = 1) ;
  3494   002DB6  8EF2               	bsf	242,7,c	;volatile
  3495   002DB8  0012               	return		;funcret
  3496   002DBA                     __end_of_MSSP_Interrupt_config:
  3497                           	callstack 0
  3498                           
  3499 ;; *************** function _led_turn_on *****************
  3500 ;; Defined at:
  3501 ;;		line 27 in file "ECU_layer/LED/ecu_led.c"
  3502 ;; Parameters:    Size  Location     Type
  3503 ;;  led             2   31[COMRAM] PTR const struct .
  3504 ;;		 -> led_1(1), 
  3505 ;; Auto vars:     Size  Location     Type
  3506 ;;  config          1   35[COMRAM] struct .
  3507 ;;  ret             1   34[COMRAM] unsigned char 
  3508 ;; Return value:  Size  Location     Type
  3509 ;;                  1    wreg      unsigned char 
  3510 ;; Registers used:
  3511 ;;		wreg, fsr2l, fsr2h, status,2, status,0, prodl, prodh, cstack
  3512 ;; Tracked objects:
  3513 ;;		On entry : 0/0
  3514 ;;		On exit  : 0/0
  3515 ;;		Unchanged: 0/0
  3516 ;; Data sizes:     COMRAM   BANK0   BANK1   BANK2   BANK3   BANK4   BANK5   BANK6   BANK7   BANK8   BANK9  BANK10  BANK1
      +1  BANK12  BANK13  BANK14  BANK15
  3517 ;;      Params:         2       0       0       0       0       0       0       0       0       0       0       0       
      +0       0       0       0       0
  3518 ;;      Locals:         2       0       0       0       0       0       0       0       0       0       0       0       
      +0       0       0       0       0
  3519 ;;      Temps:          1       0       0       0       0       0       0       0       0       0       0       0       
      +0       0       0       0       0
  3520 ;;      Totals:         5       0       0       0       0       0       0       0       0       0       0       0       
      +0       0       0       0       0
  3521 ;;Total ram usage:        5 bytes
  3522 ;; Hardware stack levels used: 1
  3523 ;; Hardware stack levels required when called: 6
  3524 ;; This function calls:
  3525 ;;		_gpio_pin_write_logic
  3526 ;; This function is called by:
  3527 ;;		_main
  3528 ;; This function uses a non-reentrant model
  3529 ;;
  3530                           
  3531                           	psect	text7
  3532   002996                     __ptext7:
  3533                           	callstack 0
  3534   002996                     _led_turn_on:
  3535                           	callstack 24
  3536   002996                     
  3537                           ;ECU_layer/LED/ecu_led.c: 28:     Std_ReturnType ret = (Std_ReturnType)0x01 ;
  3538   002996  0E01               	movlw	1
  3539   002998  6E23               	movwf	led_turn_on@ret^0,c
  3540   00299A                     
  3541                           ;ECU_layer/LED/ecu_led.c: 29:     if(((void*)0) == led)
  3542   00299A  5020               	movf	led_turn_on@led^0,w,c
  3543   00299C  1021               	iorwf	(led_turn_on@led+1)^0,w,c
  3544   00299E  A4D8               	btfss	status,2,c
  3545   0029A0  EFD4  F014         	goto	u5761
  3546   0029A4  EFD6  F014         	goto	u5760
  3547   0029A8                     u5761:
  3548   0029A8  EFDA  F014         	goto	l292
  3549   0029AC                     u5760:
  3550   0029AC                     
  3551                           ;ECU_layer/LED/ecu_led.c: 30:     {;ECU_layer/LED/ecu_led.c: 31:         ret = (Std_Retu
      +                          rnType)0x00 ;
  3552   0029AC  0E00               	movlw	0
  3553   0029AE  6E23               	movwf	led_turn_on@ret^0,c
  3554                           
  3555                           ;ECU_layer/LED/ecu_led.c: 32:     }
  3556   0029B0  EF09  F015         	goto	l6208
  3557   0029B4                     l292:
  3558                           
  3559                           ;ECU_layer/LED/ecu_led.c: 34:     {;ECU_layer/LED/ecu_led.c: 35:         pin_config_t co
      +                          nfig = {
  3560   0029B4  C056  F024         	movff	led_turn_on@F3021,led_turn_on@config
  3561   0029B8  C020  FFD9         	movff	led_turn_on@led,fsr2l
  3562   0029BC  C021  FFDA         	movff	led_turn_on@led+1,fsr2h
  3563   0029C0  50DF               	movf	223,w,c
  3564   0029C2  0B0F               	andlw	15
  3565   0029C4  6E22               	movwf	??_led_turn_on^0,c
  3566   0029C6  5024               	movf	led_turn_on@config^0,w,c
  3567   0029C8  1822               	xorwf	??_led_turn_on^0,w,c
  3568   0029CA  0BF8               	andlw	-8
  3569   0029CC  1822               	xorwf	??_led_turn_on^0,w,c
  3570   0029CE  6E24               	movwf	led_turn_on@config^0,c
  3571   0029D0  C020  FFD9         	movff	led_turn_on@led,fsr2l
  3572   0029D4  C021  FFDA         	movff	led_turn_on@led+1,fsr2h
  3573   0029D8  38DF               	swapf	223,w,c
  3574   0029DA  0B07               	andlw	7
  3575   0029DC  6E22               	movwf	??_led_turn_on^0,c
  3576   0029DE  4622               	rlncf	??_led_turn_on^0,f,c
  3577   0029E0  4622               	rlncf	??_led_turn_on^0,f,c
  3578   0029E2  4622               	rlncf	??_led_turn_on^0,f,c
  3579   0029E4  5024               	movf	led_turn_on@config^0,w,c
  3580   0029E6  1822               	xorwf	??_led_turn_on^0,w,c
  3581   0029E8  0BC7               	andlw	-57
  3582   0029EA  1822               	xorwf	??_led_turn_on^0,w,c
  3583   0029EC  6E24               	movwf	led_turn_on@config^0,c
  3584   0029EE  9C24               	bcf	led_turn_on@config^0,6,c
  3585   0029F0  C020  FFD9         	movff	led_turn_on@led,fsr2l
  3586   0029F4  C021  FFDA         	movff	led_turn_on@led+1,fsr2h
  3587   0029F8  AEDF               	btfss	indf2,7,c
  3588   0029FA  D002               	bra	u5775
  3589   0029FC  8E24               	bsf	led_turn_on@config^0,7,c
  3590   0029FE  D001               	bra	u5777
  3591   002A00                     u5775:
  3592   002A00  9E24               	bcf	led_turn_on@config^0,7,c
  3593   002A02                     u5777:
  3594   002A02                     
  3595                           ;ECU_layer/LED/ecu_led.c: 40:         gpio_pin_write_logic(&config , GPIO_HIGH);
  3596   002A02  0E24               	movlw	low led_turn_on@config
  3597   002A04  6E16               	movwf	gpio_pin_write_logic@pin_config^0,c
  3598   002A06  0E00               	movlw	high led_turn_on@config
  3599   002A08  6E17               	movwf	(gpio_pin_write_logic@pin_config+1)^0,c
  3600   002A0A  0E01               	movlw	1
  3601   002A0C  6E18               	movwf	gpio_pin_write_logic@logic^0,c
  3602   002A0E  ECBA  F010         	call	_gpio_pin_write_logic	;wreg free
  3603   002A12                     l6208:
  3604                           
  3605                           ;ECU_layer/LED/ecu_led.c: 42:       return ret ;
  3606   002A12  5023               	movf	led_turn_on@ret^0,w,c
  3607   002A14  0012               	return		;funcret
  3608   002A16                     __end_of_led_turn_on:
  3609                           	callstack 0
  3610                           
  3611 ;; *************** function _led_turn_off *****************
  3612 ;; Defined at:
  3613 ;;		line 44 in file "ECU_layer/LED/ecu_led.c"
  3614 ;; Parameters:    Size  Location     Type
  3615 ;;  led             2   31[COMRAM] PTR const struct .
  3616 ;;		 -> led_1(1), 
  3617 ;; Auto vars:     Size  Location     Type
  3618 ;;  config          1   35[COMRAM] struct .
  3619 ;;  ret             1   34[COMRAM] unsigned char 
  3620 ;; Return value:  Size  Location     Type
  3621 ;;                  1    wreg      unsigned char 
  3622 ;; Registers used:
  3623 ;;		wreg, fsr2l, fsr2h, status,2, status,0, prodl, prodh, cstack
  3624 ;; Tracked objects:
  3625 ;;		On entry : 0/0
  3626 ;;		On exit  : 0/0
  3627 ;;		Unchanged: 0/0
  3628 ;; Data sizes:     COMRAM   BANK0   BANK1   BANK2   BANK3   BANK4   BANK5   BANK6   BANK7   BANK8   BANK9  BANK10  BANK1
      +1  BANK12  BANK13  BANK14  BANK15
  3629 ;;      Params:         2       0       0       0       0       0       0       0       0       0       0       0       
      +0       0       0       0       0
  3630 ;;      Locals:         2       0       0       0       0       0       0       0       0       0       0       0       
      +0       0       0       0       0
  3631 ;;      Temps:          1       0       0       0       0       0       0       0       0       0       0       0       
      +0       0       0       0       0
  3632 ;;      Totals:         5       0       0       0       0       0       0       0       0       0       0       0       
      +0       0       0       0       0
  3633 ;;Total ram usage:        5 bytes
  3634 ;; Hardware stack levels used: 1
  3635 ;; Hardware stack levels required when called: 6
  3636 ;; This function calls:
  3637 ;;		_gpio_pin_write_logic
  3638 ;; This function is called by:
  3639 ;;		_main
  3640 ;; This function uses a non-reentrant model
  3641 ;;
  3642                           
  3643                           	psect	text8
  3644   002A16                     __ptext8:
  3645                           	callstack 0
  3646   002A16                     _led_turn_off:
  3647                           	callstack 24
  3648   002A16                     
  3649                           ;ECU_layer/LED/ecu_led.c: 45:     Std_ReturnType ret = (Std_ReturnType)0x01 ;
  3650   002A16  0E01               	movlw	1
  3651   002A18  6E23               	movwf	led_turn_off@ret^0,c
  3652   002A1A                     
  3653                           ;ECU_layer/LED/ecu_led.c: 46:     if(((void*)0) == led)
  3654   002A1A  5020               	movf	led_turn_off@led^0,w,c
  3655   002A1C  1021               	iorwf	(led_turn_off@led+1)^0,w,c
  3656   002A1E  A4D8               	btfss	status,2,c
  3657   002A20  EF14  F015         	goto	u5781
  3658   002A24  EF16  F015         	goto	u5780
  3659   002A28                     u5781:
  3660   002A28  EF1A  F015         	goto	l299
  3661   002A2C                     u5780:
  3662   002A2C                     
  3663                           ;ECU_layer/LED/ecu_led.c: 47:     {;ECU_layer/LED/ecu_led.c: 48:         ret = (Std_Retu
      +                          rnType)0x00 ;
  3664   002A2C  0E00               	movlw	0
  3665   002A2E  6E23               	movwf	led_turn_off@ret^0,c
  3666                           
  3667                           ;ECU_layer/LED/ecu_led.c: 49:     }
  3668   002A30  EF49  F015         	goto	l6226
  3669   002A34                     l299:
  3670                           
  3671                           ;ECU_layer/LED/ecu_led.c: 51:     {;ECU_layer/LED/ecu_led.c: 52:         pin_config_t co
      +                          nfig = {
  3672   002A34  C055  F024         	movff	led_turn_off@F3026,led_turn_off@config
  3673   002A38  C020  FFD9         	movff	led_turn_off@led,fsr2l
  3674   002A3C  C021  FFDA         	movff	led_turn_off@led+1,fsr2h
  3675   002A40  50DF               	movf	223,w,c
  3676   002A42  0B0F               	andlw	15
  3677   002A44  6E22               	movwf	??_led_turn_off^0,c
  3678   002A46  5024               	movf	led_turn_off@config^0,w,c
  3679   002A48  1822               	xorwf	??_led_turn_off^0,w,c
  3680   002A4A  0BF8               	andlw	-8
  3681   002A4C  1822               	xorwf	??_led_turn_off^0,w,c
  3682   002A4E  6E24               	movwf	led_turn_off@config^0,c
  3683   002A50  C020  FFD9         	movff	led_turn_off@led,fsr2l
  3684   002A54  C021  FFDA         	movff	led_turn_off@led+1,fsr2h
  3685   002A58  38DF               	swapf	223,w,c
  3686   002A5A  0B07               	andlw	7
  3687   002A5C  6E22               	movwf	??_led_turn_off^0,c
  3688   002A5E  4622               	rlncf	??_led_turn_off^0,f,c
  3689   002A60  4622               	rlncf	??_led_turn_off^0,f,c
  3690   002A62  4622               	rlncf	??_led_turn_off^0,f,c
  3691   002A64  5024               	movf	led_turn_off@config^0,w,c
  3692   002A66  1822               	xorwf	??_led_turn_off^0,w,c
  3693   002A68  0BC7               	andlw	-57
  3694   002A6A  1822               	xorwf	??_led_turn_off^0,w,c
  3695   002A6C  6E24               	movwf	led_turn_off@config^0,c
  3696   002A6E  9C24               	bcf	led_turn_off@config^0,6,c
  3697   002A70  C020  FFD9         	movff	led_turn_off@led,fsr2l
  3698   002A74  C021  FFDA         	movff	led_turn_off@led+1,fsr2h
  3699   002A78  AEDF               	btfss	indf2,7,c
  3700   002A7A  D002               	bra	u5795
  3701   002A7C  8E24               	bsf	led_turn_off@config^0,7,c
  3702   002A7E  D001               	bra	u5797
  3703   002A80                     u5795:
  3704   002A80  9E24               	bcf	led_turn_off@config^0,7,c
  3705   002A82                     u5797:
  3706   002A82                     
  3707                           ;ECU_layer/LED/ecu_led.c: 57:         gpio_pin_write_logic(&config , GPIO_LOW);
  3708   002A82  0E24               	movlw	low led_turn_off@config
  3709   002A84  6E16               	movwf	gpio_pin_write_logic@pin_config^0,c
  3710   002A86  0E00               	movlw	high led_turn_off@config
  3711   002A88  6E17               	movwf	(gpio_pin_write_logic@pin_config+1)^0,c
  3712   002A8A  0E00               	movlw	0
  3713   002A8C  6E18               	movwf	gpio_pin_write_logic@logic^0,c
  3714   002A8E  ECBA  F010         	call	_gpio_pin_write_logic	;wreg free
  3715   002A92                     l6226:
  3716                           
  3717                           ;ECU_layer/LED/ecu_led.c: 59:       return ret ;
  3718   002A92  5023               	movf	led_turn_off@ret^0,w,c
  3719   002A94  0012               	return		;funcret
  3720   002A96                     __end_of_led_turn_off:
  3721                           	callstack 0
  3722                           
  3723 ;; *************** function _led_intialize *****************
  3724 ;; Defined at:
  3725 ;;		line 10 in file "ECU_layer/LED/ecu_led.c"
  3726 ;; Parameters:    Size  Location     Type
  3727 ;;  led             2   35[COMRAM] PTR const struct .
  3728 ;;		 -> led_1(1), 
  3729 ;; Auto vars:     Size  Location     Type
  3730 ;;  config          1   39[COMRAM] struct .
  3731 ;;  ret             1   38[COMRAM] unsigned char 
  3732 ;; Return value:  Size  Location     Type
  3733 ;;                  1    wreg      unsigned char 
  3734 ;; Registers used:
  3735 ;;		wreg, fsr2l, fsr2h, status,2, status,0, prodl, prodh, cstack
  3736 ;; Tracked objects:
  3737 ;;		On entry : 0/0
  3738 ;;		On exit  : 0/0
  3739 ;;		Unchanged: 0/0
  3740 ;; Data sizes:     COMRAM   BANK0   BANK1   BANK2   BANK3   BANK4   BANK5   BANK6   BANK7   BANK8   BANK9  BANK10  BANK1
      +1  BANK12  BANK13  BANK14  BANK15
  3741 ;;      Params:         2       0       0       0       0       0       0       0       0       0       0       0       
      +0       0       0       0       0
  3742 ;;      Locals:         2       0       0       0       0       0       0       0       0       0       0       0       
      +0       0       0       0       0
  3743 ;;      Temps:          1       0       0       0       0       0       0       0       0       0       0       0       
      +0       0       0       0       0
  3744 ;;      Totals:         5       0       0       0       0       0       0       0       0       0       0       0       
      +0       0       0       0       0
  3745 ;;Total ram usage:        5 bytes
  3746 ;; Hardware stack levels used: 1
  3747 ;; Hardware stack levels required when called: 7
  3748 ;; This function calls:
  3749 ;;		_gpio_pin_intialize
  3750 ;; This function is called by:
  3751 ;;		_main
  3752 ;; This function uses a non-reentrant model
  3753 ;;
  3754                           
  3755                           	psect	text9
  3756   002B96                     __ptext9:
  3757                           	callstack 0
  3758   002B96                     _led_intialize:
  3759                           	callstack 23
  3760   002B96                     
  3761                           ;ECU_layer/LED/ecu_led.c: 11:     Std_ReturnType ret = (Std_ReturnType)0x01 ;
  3762   002B96  0E01               	movlw	1
  3763   002B98  6E27               	movwf	led_intialize@ret^0,c
  3764   002B9A                     
  3765                           ;ECU_layer/LED/ecu_led.c: 12:     if(((void*)0) == led)
  3766   002B9A  5024               	movf	led_intialize@led^0,w,c
  3767   002B9C  1025               	iorwf	(led_intialize@led+1)^0,w,c
  3768   002B9E  A4D8               	btfss	status,2,c
  3769   002BA0  EFD4  F015         	goto	u5741
  3770   002BA4  EFD6  F015         	goto	u5740
  3771   002BA8                     u5741:
  3772   002BA8  EFDA  F015         	goto	l285
  3773   002BAC                     u5740:
  3774   002BAC                     
  3775                           ;ECU_layer/LED/ecu_led.c: 13:     {;ECU_layer/LED/ecu_led.c: 14:         ret = (Std_Retu
      +                          rnType)0x00 ;
  3776   002BAC  0E00               	movlw	0
  3777   002BAE  6E27               	movwf	led_intialize@ret^0,c
  3778                           
  3779                           ;ECU_layer/LED/ecu_led.c: 15:     }
  3780   002BB0  EF07  F016         	goto	l6190
  3781   002BB4                     l285:
  3782                           
  3783                           ;ECU_layer/LED/ecu_led.c: 17:     {;ECU_layer/LED/ecu_led.c: 18:         pin_config_t co
      +                          nfig = {
  3784   002BB4  C057  F028         	movff	led_intialize@F3016,led_intialize@config
  3785   002BB8  C024  FFD9         	movff	led_intialize@led,fsr2l
  3786   002BBC  C025  FFDA         	movff	led_intialize@led+1,fsr2h
  3787   002BC0  50DF               	movf	223,w,c
  3788   002BC2  0B0F               	andlw	15
  3789   002BC4  6E26               	movwf	??_led_intialize^0,c
  3790   002BC6  5028               	movf	led_intialize@config^0,w,c
  3791   002BC8  1826               	xorwf	??_led_intialize^0,w,c
  3792   002BCA  0BF8               	andlw	-8
  3793   002BCC  1826               	xorwf	??_led_intialize^0,w,c
  3794   002BCE  6E28               	movwf	led_intialize@config^0,c
  3795   002BD0  C024  FFD9         	movff	led_intialize@led,fsr2l
  3796   002BD4  C025  FFDA         	movff	led_intialize@led+1,fsr2h
  3797   002BD8  38DF               	swapf	223,w,c
  3798   002BDA  0B07               	andlw	7
  3799   002BDC  6E26               	movwf	??_led_intialize^0,c
  3800   002BDE  4626               	rlncf	??_led_intialize^0,f,c
  3801   002BE0  4626               	rlncf	??_led_intialize^0,f,c
  3802   002BE2  4626               	rlncf	??_led_intialize^0,f,c
  3803   002BE4  5028               	movf	led_intialize@config^0,w,c
  3804   002BE6  1826               	xorwf	??_led_intialize^0,w,c
  3805   002BE8  0BC7               	andlw	-57
  3806   002BEA  1826               	xorwf	??_led_intialize^0,w,c
  3807   002BEC  6E28               	movwf	led_intialize@config^0,c
  3808   002BEE  9C28               	bcf	led_intialize@config^0,6,c
  3809   002BF0  C024  FFD9         	movff	led_intialize@led,fsr2l
  3810   002BF4  C025  FFDA         	movff	led_intialize@led+1,fsr2h
  3811   002BF8  AEDF               	btfss	indf2,7,c
  3812   002BFA  D002               	bra	u5755
  3813   002BFC  8E28               	bsf	led_intialize@config^0,7,c
  3814   002BFE  D001               	bra	u5757
  3815   002C00                     u5755:
  3816   002C00  9E28               	bcf	led_intialize@config^0,7,c
  3817   002C02                     u5757:
  3818   002C02                     
  3819                           ;ECU_layer/LED/ecu_led.c: 23:         gpio_pin_intialize(&config);
  3820   002C02  0E28               	movlw	low led_intialize@config
  3821   002C04  6E20               	movwf	gpio_pin_intialize@pin_config^0,c
  3822   002C06  0E00               	movlw	high led_intialize@config
  3823   002C08  6E21               	movwf	(gpio_pin_intialize@pin_config+1)^0,c
  3824   002C0A  EC82  F016         	call	_gpio_pin_intialize	;wreg free
  3825   002C0E                     l6190:
  3826                           
  3827                           ;ECU_layer/LED/ecu_led.c: 25:     return ret ;
  3828   002C0E  5027               	movf	led_intialize@ret^0,w,c
  3829   002C10  0012               	return		;funcret
  3830   002C12                     __end_of_led_intialize:
  3831                           	callstack 0
  3832                           
  3833 ;; *************** function _gpio_pin_intialize *****************
  3834 ;; Defined at:
  3835 ;;		line 64 in file "MCAL_layer/GPIO/hal_gpio.c"
  3836 ;; Parameters:    Size  Location     Type
  3837 ;;  pin_config      2   31[COMRAM] PTR const struct .
  3838 ;;		 -> relay_intialize@config(1), led_intialize@config(1), dc_motor_intialize@config_2(1), dc_motor_intialize@config_1(
      +1), 
  3839 ;; Auto vars:     Size  Location     Type
  3840 ;;  ret             1   34[COMRAM] unsigned char 
  3841 ;; Return value:  Size  Location     Type
  3842 ;;                  1    wreg      unsigned char 
  3843 ;; Registers used:
  3844 ;;		wreg, fsr2l, fsr2h, status,2, status,0, prodl, prodh, cstack
  3845 ;; Tracked objects:
  3846 ;;		On entry : 0/0
  3847 ;;		On exit  : 0/0
  3848 ;;		Unchanged: 0/0
  3849 ;; Data sizes:     COMRAM   BANK0   BANK1   BANK2   BANK3   BANK4   BANK5   BANK6   BANK7   BANK8   BANK9  BANK10  BANK1
      +1  BANK12  BANK13  BANK14  BANK15
  3850 ;;      Params:         2       0       0       0       0       0       0       0       0       0       0       0       
      +0       0       0       0       0
  3851 ;;      Locals:         1       0       0       0       0       0       0       0       0       0       0       0       
      +0       0       0       0       0
  3852 ;;      Temps:          1       0       0       0       0       0       0       0       0       0       0       0       
      +0       0       0       0       0
  3853 ;;      Totals:         4       0       0       0       0       0       0       0       0       0       0       0       
      +0       0       0       0       0
  3854 ;;Total ram usage:        4 bytes
  3855 ;; Hardware stack levels used: 1
  3856 ;; Hardware stack levels required when called: 6
  3857 ;; This function calls:
  3858 ;;		_gpio_pin_direction_intialize
  3859 ;;		_gpio_pin_write_logic
  3860 ;; This function is called by:
  3861 ;;		_led_intialize
  3862 ;;		_seven_segment_intialize
  3863 ;;		_lcd_4bit_initialize
  3864 ;;		_lcd_8bit_initialize
  3865 ;;		_dc_motor_intialize
  3866 ;;		_keypad_initialize
  3867 ;;		_relay_intialize
  3868 ;;		_ccp_Init
  3869 ;; This function uses a non-reentrant model
  3870 ;;
  3871                           
  3872                           	psect	text10
  3873   002D04                     __ptext10:
  3874                           	callstack 0
  3875   002D04                     _gpio_pin_intialize:
  3876                           	callstack 23
  3877   002D04                     
  3878                           ;MCAL_layer/GPIO/hal_gpio.c: 66:     if(((void*)0) == pin_config || (pin_config->pin) > 
      +                          8 - 1)
  3879   002D04  5020               	movf	gpio_pin_intialize@pin_config^0,w,c
  3880   002D06  1021               	iorwf	(gpio_pin_intialize@pin_config+1)^0,w,c
  3881   002D08  B4D8               	btfsc	status,2,c
  3882   002D0A  EF89  F016         	goto	u4751
  3883   002D0E  EF8B  F016         	goto	u4750
  3884   002D12                     u4751:
  3885   002D12  EF9C  F016         	goto	l5554
  3886   002D16                     u4750:
  3887   002D16  C020  FFD9         	movff	gpio_pin_intialize@pin_config,fsr2l
  3888   002D1A  C021  FFDA         	movff	gpio_pin_intialize@pin_config+1,fsr2h
  3889   002D1E  30DF               	rrcf	223,w,c
  3890   002D20  32E8               	rrcf	wreg,f,c
  3891   002D22  32E8               	rrcf	wreg,f,c
  3892   002D24  0B07               	andlw	7
  3893   002D26  6E22               	movwf	??_gpio_pin_intialize^0,c
  3894   002D28  0E07               	movlw	7
  3895   002D2A  6422               	cpfsgt	??_gpio_pin_intialize^0,c
  3896   002D2C  EF9A  F016         	goto	u4761
  3897   002D30  EF9C  F016         	goto	u4760
  3898   002D34                     u4761:
  3899   002D34  EFA0  F016         	goto	l5556
  3900   002D38                     u4760:
  3901   002D38                     l5554:
  3902                           
  3903                           ;MCAL_layer/GPIO/hal_gpio.c: 67:     {;MCAL_layer/GPIO/hal_gpio.c: 68:         ret = (St
      +                          d_ReturnType)0x00 ;
  3904   002D38  0E00               	movlw	0
  3905   002D3A  6E23               	movwf	gpio_pin_intialize@ret^0,c
  3906                           
  3907                           ;MCAL_layer/GPIO/hal_gpio.c: 69:     }
  3908   002D3C  EFB6  F016         	goto	l5558
  3909   002D40                     l5556:
  3910                           
  3911                           ;MCAL_layer/GPIO/hal_gpio.c: 71:       ret = gpio_pin_direction_intialize(pin_config);
  3912   002D40  C020  F016         	movff	gpio_pin_intialize@pin_config,gpio_pin_direction_intialize@pin_config
  3913   002D44  C021  F017         	movff	gpio_pin_intialize@pin_config+1,gpio_pin_direction_intialize@pin_config+1
  3914   002D48  EC18  F010         	call	_gpio_pin_direction_intialize	;wreg free
  3915   002D4C  6E23               	movwf	gpio_pin_intialize@ret^0,c
  3916                           
  3917                           ;MCAL_layer/GPIO/hal_gpio.c: 72:       ret = gpio_pin_write_logic(pin_config ,pin_config
      +                          ->logic);
  3918   002D4E  C020  F016         	movff	gpio_pin_intialize@pin_config,gpio_pin_write_logic@pin_config
  3919   002D52  C021  F017         	movff	gpio_pin_intialize@pin_config+1,gpio_pin_write_logic@pin_config+1
  3920   002D56  C020  FFD9         	movff	gpio_pin_intialize@pin_config,fsr2l
  3921   002D5A  C021  FFDA         	movff	gpio_pin_intialize@pin_config+1,fsr2h
  3922   002D5E  0E00               	movlw	0
  3923   002D60  BEDF               	btfsc	indf2,7,c
  3924   002D62  0E01               	movlw	1
  3925   002D64  6E18               	movwf	gpio_pin_write_logic@logic^0,c
  3926   002D66  ECBA  F010         	call	_gpio_pin_write_logic	;wreg free
  3927   002D6A  6E23               	movwf	gpio_pin_intialize@ret^0,c
  3928   002D6C                     l5558:
  3929                           
  3930                           ;MCAL_layer/GPIO/hal_gpio.c: 74:       return ret ;
  3931   002D6C  5023               	movf	gpio_pin_intialize@ret^0,w,c
  3932   002D6E  0012               	return		;funcret
  3933   002D70                     __end_of_gpio_pin_intialize:
  3934                           	callstack 0
  3935                           
  3936 ;; *************** function _gpio_pin_write_logic *****************
  3937 ;; Defined at:
  3938 ;;		line 44 in file "MCAL_layer/GPIO/hal_gpio.c"
  3939 ;; Parameters:    Size  Location     Type
  3940 ;;  pin_config      2   21[COMRAM] PTR const struct .
  3941 ;;		 -> relay_turn_off@config(1), relay_turn_on@config(1), relay_intialize@config(1), led_turn_off@config(1), 
  3942 ;;		 -> led_turn_on@config(1), led_intialize@config(1), dc_motor_stop@config_2(1), dc_motor_stop@config_1(1), 
  3943 ;;		 -> dc_motor_turn_left@config_2(1), dc_motor_turn_left@config_1(1), dc_motor_turn_right@config_2(1), dc_motor_turn_r
      +ight@config_1(1), 
  3944 ;;		 -> dc_motor_intialize@config_2(1), dc_motor_intialize@config_1(1), 
  3945 ;;  logic           1   23[COMRAM] enum E2936
  3946 ;; Auto vars:     Size  Location     Type
  3947 ;;  ret             1   30[COMRAM] unsigned char 
  3948 ;; Return value:  Size  Location     Type
  3949 ;;                  1    wreg      unsigned char 
  3950 ;; Registers used:
  3951 ;;		wreg, fsr2l, fsr2h, status,2, status,0, prodl, prodh
  3952 ;; Tracked objects:
  3953 ;;		On entry : 0/0
  3954 ;;		On exit  : 0/0
  3955 ;;		Unchanged: 0/0
  3956 ;; Data sizes:     COMRAM   BANK0   BANK1   BANK2   BANK3   BANK4   BANK5   BANK6   BANK7   BANK8   BANK9  BANK10  BANK1
      +1  BANK12  BANK13  BANK14  BANK15
  3957 ;;      Params:         3       0       0       0       0       0       0       0       0       0       0       0       
      +0       0       0       0       0
  3958 ;;      Locals:         1       0       0       0       0       0       0       0       0       0       0       0       
      +0       0       0       0       0
  3959 ;;      Temps:          6       0       0       0       0       0       0       0       0       0       0       0       
      +0       0       0       0       0
  3960 ;;      Totals:        10       0       0       0       0       0       0       0       0       0       0       0       
      +0       0       0       0       0
  3961 ;;Total ram usage:       10 bytes
  3962 ;; Hardware stack levels used: 1
  3963 ;; Hardware stack levels required when called: 5
  3964 ;; This function calls:
  3965 ;;		Nothing
  3966 ;; This function is called by:
  3967 ;;		_led_turn_on
  3968 ;;		_led_turn_off
  3969 ;;		_gpio_pin_intialize
  3970 ;;		_seven_segment_write_number
  3971 ;;		_lcd_4bit_send_command
  3972 ;;		_lcd_4bit_send_chr_data
  3973 ;;		_lcd_8bit_send_command
  3974 ;;		_lcd_8bit_send_chr_data
  3975 ;;		_lcd_send_4bit
  3976 ;;		_lcd_send_4bit_enable_signal
  3977 ;;		_lcd_send_8bit_enable_signal
  3978 ;;		_dc_motor_turn_right
  3979 ;;		_dc_motor_turn_left
  3980 ;;		_dc_motor_stop
  3981 ;;		_keypad_get_value
  3982 ;;		_relay_turn_on
  3983 ;;		_relay_turn_off
  3984 ;; This function uses a non-reentrant model
  3985 ;;
  3986                           
  3987                           	psect	text11
  3988   002174                     __ptext11:
  3989                           	callstack 0
  3990   002174                     _gpio_pin_write_logic:
  3991                           	callstack 24
  3992   002174                     
  3993                           ;MCAL_layer/GPIO/hal_gpio.c: 45:        Std_ReturnType ret = (Std_ReturnType)0x01 ;
  3994   002174  0E01               	movlw	1
  3995   002176  6E1F               	movwf	gpio_pin_write_logic@ret^0,c
  3996   002178                     
  3997                           ;MCAL_layer/GPIO/hal_gpio.c: 46:     if(((void*)0) == pin_config || pin_config->pin > 8 
      +                          - 1)
  3998   002178  5016               	movf	gpio_pin_write_logic@pin_config^0,w,c
  3999   00217A  1017               	iorwf	(gpio_pin_write_logic@pin_config+1)^0,w,c
  4000   00217C  B4D8               	btfsc	status,2,c
  4001   00217E  EFC3  F010         	goto	u4551
  4002   002182  EFC5  F010         	goto	u4550
  4003   002186                     u4551:
  4004   002186  EFD6  F010         	goto	l5420
  4005   00218A                     u4550:
  4006   00218A  C016  FFD9         	movff	gpio_pin_write_logic@pin_config,fsr2l
  4007   00218E  C017  FFDA         	movff	gpio_pin_write_logic@pin_config+1,fsr2h
  4008   002192  30DF               	rrcf	223,w,c
  4009   002194  32E8               	rrcf	wreg,f,c
  4010   002196  32E8               	rrcf	wreg,f,c
  4011   002198  0B07               	andlw	7
  4012   00219A  6E19               	movwf	??_gpio_pin_write_logic^0,c
  4013   00219C  0E07               	movlw	7
  4014   00219E  6419               	cpfsgt	??_gpio_pin_write_logic^0,c
  4015   0021A0  EFD4  F010         	goto	u4561
  4016   0021A4  EFD6  F010         	goto	u4560
  4017   0021A8                     u4561:
  4018   0021A8  EF39  F011         	goto	l5428
  4019   0021AC                     u4560:
  4020   0021AC                     l5420:
  4021                           
  4022                           ;MCAL_layer/GPIO/hal_gpio.c: 47:     {;MCAL_layer/GPIO/hal_gpio.c: 48:         ret = (St
      +                          d_ReturnType)0x00 ;
  4023   0021AC  0E00               	movlw	0
  4024   0021AE  6E1F               	movwf	gpio_pin_write_logic@ret^0,c
  4025                           
  4026                           ;MCAL_layer/GPIO/hal_gpio.c: 49:     }
  4027   0021B0  EF4E  F011         	goto	l5430
  4028   0021B4                     l5422:
  4029                           
  4030                           ;MCAL_layer/GPIO/hal_gpio.c: 54:                 (*lat_register[pin_config->port] &= ~((
      +                          uint8) 1 << pin_config->pin));
  4031   0021B4  C016  FFD9         	movff	gpio_pin_write_logic@pin_config,fsr2l
  4032   0021B8  C017  FFDA         	movff	gpio_pin_write_logic@pin_config+1,fsr2h
  4033   0021BC  30DF               	rrcf	223,w,c
  4034   0021BE  32E8               	rrcf	wreg,f,c
  4035   0021C0  32E8               	rrcf	wreg,f,c
  4036   0021C2  0B07               	andlw	7
  4037   0021C4  6E19               	movwf	??_gpio_pin_write_logic^0,c
  4038   0021C6  0E01               	movlw	1
  4039   0021C8  6E1A               	movwf	(??_gpio_pin_write_logic+1)^0,c
  4040   0021CA  2A19               	incf	??_gpio_pin_write_logic^0,f,c
  4041   0021CC  EFEA  F010         	goto	u4574
  4042   0021D0                     u4575:
  4043   0021D0  90D8               	bcf	status,0,c
  4044   0021D2  361A               	rlcf	(??_gpio_pin_write_logic+1)^0,f,c
  4045   0021D4                     u4574:
  4046   0021D4  2E19               	decfsz	??_gpio_pin_write_logic^0,f,c
  4047   0021D6  EFE8  F010         	goto	u4575
  4048   0021DA  501A               	movf	(??_gpio_pin_write_logic+1)^0,w,c
  4049   0021DC  0AFF               	xorlw	255
  4050   0021DE  6E1B               	movwf	(??_gpio_pin_write_logic+2)^0,c
  4051   0021E0  C016  FFD9         	movff	gpio_pin_write_logic@pin_config,fsr2l
  4052   0021E4  C017  FFDA         	movff	gpio_pin_write_logic@pin_config+1,fsr2h
  4053   0021E8  50DF               	movf	223,w,c
  4054   0021EA  0B07               	andlw	7
  4055   0021EC  6E1C               	movwf	(??_gpio_pin_write_logic+3)^0,c
  4056   0021EE  501C               	movf	(??_gpio_pin_write_logic+3)^0,w,c
  4057   0021F0  0D02               	mullw	2
  4058   0021F2  0EE5               	movlw	low _lat_register
  4059   0021F4  24F3               	addwf	243,w,c
  4060   0021F6  6ED9               	movwf	fsr2l,c
  4061   0021F8  0E00               	movlw	high _lat_register
  4062   0021FA  20F4               	addwfc	prodh,w,c
  4063   0021FC  6EDA               	movwf	fsr2h,c
  4064   0021FE  CFDE F01D          	movff	postinc2,??_gpio_pin_write_logic+4
  4065   002202  CFDD F01E          	movff	postdec2,??_gpio_pin_write_logic+5
  4066   002206  C01D  FFD9         	movff	??_gpio_pin_write_logic+4,fsr2l
  4067   00220A  C01E  FFDA         	movff	??_gpio_pin_write_logic+5,fsr2h
  4068   00220E  501B               	movf	(??_gpio_pin_write_logic+2)^0,w,c
  4069   002210  16DF               	andwf	indf2,f,c
  4070                           
  4071                           ;MCAL_layer/GPIO/hal_gpio.c: 55:                 break;
  4072   002212  EF4E  F011         	goto	l5430
  4073   002216                     l5424:
  4074                           
  4075                           ;MCAL_layer/GPIO/hal_gpio.c: 57:                 (*lat_register[pin_config->port] |= ((u
      +                          int8) 1 << pin_config->pin));
  4076   002216  C016  FFD9         	movff	gpio_pin_write_logic@pin_config,fsr2l
  4077   00221A  C017  FFDA         	movff	gpio_pin_write_logic@pin_config+1,fsr2h
  4078   00221E  30DF               	rrcf	223,w,c
  4079   002220  32E8               	rrcf	wreg,f,c
  4080   002222  32E8               	rrcf	wreg,f,c
  4081   002224  0B07               	andlw	7
  4082   002226  6E19               	movwf	??_gpio_pin_write_logic^0,c
  4083   002228  0E01               	movlw	1
  4084   00222A  6E1A               	movwf	(??_gpio_pin_write_logic+1)^0,c
  4085   00222C  2A19               	incf	??_gpio_pin_write_logic^0,f,c
  4086   00222E  EF1B  F011         	goto	u4584
  4087   002232                     u4585:
  4088   002232  90D8               	bcf	status,0,c
  4089   002234  361A               	rlcf	(??_gpio_pin_write_logic+1)^0,f,c
  4090   002236                     u4584:
  4091   002236  2E19               	decfsz	??_gpio_pin_write_logic^0,f,c
  4092   002238  EF19  F011         	goto	u4585
  4093   00223C  C016  FFD9         	movff	gpio_pin_write_logic@pin_config,fsr2l
  4094   002240  C017  FFDA         	movff	gpio_pin_write_logic@pin_config+1,fsr2h
  4095   002244  50DF               	movf	223,w,c
  4096   002246  0B07               	andlw	7
  4097   002248  6E1B               	movwf	(??_gpio_pin_write_logic+2)^0,c
  4098   00224A  501B               	movf	(??_gpio_pin_write_logic+2)^0,w,c
  4099   00224C  0D02               	mullw	2
  4100   00224E  0EE5               	movlw	low _lat_register
  4101   002250  24F3               	addwf	243,w,c
  4102   002252  6ED9               	movwf	fsr2l,c
  4103   002254  0E00               	movlw	high _lat_register
  4104   002256  20F4               	addwfc	prodh,w,c
  4105   002258  6EDA               	movwf	fsr2h,c
  4106   00225A  CFDE F01C          	movff	postinc2,??_gpio_pin_write_logic+3
  4107   00225E  CFDD F01D          	movff	postdec2,??_gpio_pin_write_logic+4
  4108   002262  C01C  FFD9         	movff	??_gpio_pin_write_logic+3,fsr2l
  4109   002266  C01D  FFDA         	movff	??_gpio_pin_write_logic+4,fsr2h
  4110   00226A  501A               	movf	(??_gpio_pin_write_logic+1)^0,w,c
  4111   00226C  12DF               	iorwf	indf2,f,c
  4112                           
  4113                           ;MCAL_layer/GPIO/hal_gpio.c: 58:                 break;
  4114   00226E  EF4E  F011         	goto	l5430
  4115   002272                     l5428:
  4116   002272  5018               	movf	gpio_pin_write_logic@logic^0,w,c
  4117   002274  6E19               	movwf	??_gpio_pin_write_logic^0,c
  4118   002276  6A1A               	clrf	(??_gpio_pin_write_logic+1)^0,c
  4119                           
  4120                           ; Switch on 2 bytes has been partitioned into a top level switch of size 1, and 1 sub-sw
      +                          itches
  4121                           ; Switch size 1, requested type "simple"
  4122                           ; Number of cases is 1, Range of values is 0 to 0
  4123                           ; switch strategies available:
  4124                           ; Name         Instructions Cycles
  4125                           ; simple_byte            4     3 (average)
  4126                           ;	Chosen strategy is simple_byte
  4127   002278  501A               	movf	(??_gpio_pin_write_logic+1)^0,w,c
  4128   00227A  0A00               	xorlw	0	; case 0
  4129   00227C  B4D8               	btfsc	status,2,c
  4130   00227E  EF43  F011         	goto	l8672
  4131   002282  EFD6  F010         	goto	l5420
  4132   002286                     l8672:
  4133                           
  4134                           ; Switch size 1, requested type "simple"
  4135                           ; Number of cases is 2, Range of values is 0 to 1
  4136                           ; switch strategies available:
  4137                           ; Name         Instructions Cycles
  4138                           ; simple_byte            7     4 (average)
  4139                           ;	Chosen strategy is simple_byte
  4140   002286  5019               	movf	??_gpio_pin_write_logic^0,w,c
  4141   002288  0A00               	xorlw	0	; case 0
  4142   00228A  B4D8               	btfsc	status,2,c
  4143   00228C  EFDA  F010         	goto	l5422
  4144   002290  0A01               	xorlw	1	; case 1
  4145   002292  B4D8               	btfsc	status,2,c
  4146   002294  EF0B  F011         	goto	l5424
  4147   002298  EFD6  F010         	goto	l5420
  4148   00229C                     l5430:
  4149                           
  4150                           ;MCAL_layer/GPIO/hal_gpio.c: 62:      return ret ;
  4151   00229C  501F               	movf	gpio_pin_write_logic@ret^0,w,c
  4152   00229E  0012               	return		;funcret
  4153   0022A0                     __end_of_gpio_pin_write_logic:
  4154                           	callstack 0
  4155                           
  4156 ;; *************** function _gpio_pin_direction_intialize *****************
  4157 ;; Defined at:
  4158 ;;		line 13 in file "MCAL_layer/GPIO/hal_gpio.c"
  4159 ;; Parameters:    Size  Location     Type
  4160 ;;  pin_config      2   21[COMRAM] PTR const struct .
  4161 ;;		 -> relay_intialize@config(1), led_intialize@config(1), dc_motor_intialize@config_2(1), dc_motor_intialize@config_1(
      +1), 
  4162 ;; Auto vars:     Size  Location     Type
  4163 ;;  ret             1   29[COMRAM] unsigned char 
  4164 ;; Return value:  Size  Location     Type
  4165 ;;                  1    wreg      unsigned char 
  4166 ;; Registers used:
  4167 ;;		wreg, fsr2l, fsr2h, status,2, status,0, prodl, prodh
  4168 ;; Tracked objects:
  4169 ;;		On entry : 0/0
  4170 ;;		On exit  : 0/0
  4171 ;;		Unchanged: 0/0
  4172 ;; Data sizes:     COMRAM   BANK0   BANK1   BANK2   BANK3   BANK4   BANK5   BANK6   BANK7   BANK8   BANK9  BANK10  BANK1
      +1  BANK12  BANK13  BANK14  BANK15
  4173 ;;      Params:         2       0       0       0       0       0       0       0       0       0       0       0       
      +0       0       0       0       0
  4174 ;;      Locals:         1       0       0       0       0       0       0       0       0       0       0       0       
      +0       0       0       0       0
  4175 ;;      Temps:          6       0       0       0       0       0       0       0       0       0       0       0       
      +0       0       0       0       0
  4176 ;;      Totals:         9       0       0       0       0       0       0       0       0       0       0       0       
      +0       0       0       0       0
  4177 ;;Total ram usage:        9 bytes
  4178 ;; Hardware stack levels used: 1
  4179 ;; Hardware stack levels required when called: 5
  4180 ;; This function calls:
  4181 ;;		Nothing
  4182 ;; This function is called by:
  4183 ;;		_gpio_pin_intialize
  4184 ;;		_button_intialize
  4185 ;;		_keypad_initialize
  4186 ;;		_Interrupt_RBx_Init
  4187 ;;		_Interrupt_INTx_Pin_Init
  4188 ;; This function uses a non-reentrant model
  4189 ;;
  4190                           
  4191                           	psect	text12
  4192   002030                     __ptext12:
  4193                           	callstack 0
  4194   002030                     _gpio_pin_direction_intialize:
  4195                           	callstack 23
  4196   002030                     
  4197                           ;MCAL_layer/GPIO/hal_gpio.c: 14:     Std_ReturnType ret = (Std_ReturnType)0x01 ;
  4198   002030  0E01               	movlw	1
  4199   002032  6E1E               	movwf	gpio_pin_direction_intialize@ret^0,c
  4200   002034                     
  4201                           ;MCAL_layer/GPIO/hal_gpio.c: 15:     if(((void*)0) == pin_config || pin_config->pin > 8 
      +                          - 1)
  4202   002034  5016               	movf	gpio_pin_direction_intialize@pin_config^0,w,c
  4203   002036  1017               	iorwf	(gpio_pin_direction_intialize@pin_config+1)^0,w,c
  4204   002038  B4D8               	btfsc	status,2,c
  4205   00203A  EF21  F010         	goto	u4591
  4206   00203E  EF23  F010         	goto	u4590
  4207   002042                     u4591:
  4208   002042  EF34  F010         	goto	l5444
  4209   002046                     u4590:
  4210   002046  C016  FFD9         	movff	gpio_pin_direction_intialize@pin_config,fsr2l
  4211   00204A  C017  FFDA         	movff	gpio_pin_direction_intialize@pin_config+1,fsr2h
  4212   00204E  30DF               	rrcf	223,w,c
  4213   002050  32E8               	rrcf	wreg,f,c
  4214   002052  32E8               	rrcf	wreg,f,c
  4215   002054  0B07               	andlw	7
  4216   002056  6E18               	movwf	??_gpio_pin_direction_intialize^0,c
  4217   002058  0E07               	movlw	7
  4218   00205A  6418               	cpfsgt	??_gpio_pin_direction_intialize^0,c
  4219   00205C  EF32  F010         	goto	u4601
  4220   002060  EF34  F010         	goto	u4600
  4221   002064                     u4601:
  4222   002064  EF97  F010         	goto	l5452
  4223   002068                     u4600:
  4224   002068                     l5444:
  4225                           
  4226                           ;MCAL_layer/GPIO/hal_gpio.c: 16:     {;MCAL_layer/GPIO/hal_gpio.c: 17:         ret = (St
      +                          d_ReturnType)0x00 ;
  4227   002068  0E00               	movlw	0
  4228   00206A  6E1E               	movwf	gpio_pin_direction_intialize@ret^0,c
  4229                           
  4230                           ;MCAL_layer/GPIO/hal_gpio.c: 18:     }
  4231   00206C  EFB8  F010         	goto	l5454
  4232   002070                     l5446:
  4233                           
  4234                           ;MCAL_layer/GPIO/hal_gpio.c: 23:                 (*tris_register[pin_config->port] &= ~(
      +                          (uint8) 1 << pin_config->pin));
  4235   002070  C016  FFD9         	movff	gpio_pin_direction_intialize@pin_config,fsr2l
  4236   002074  C017  FFDA         	movff	gpio_pin_direction_intialize@pin_config+1,fsr2h
  4237   002078  30DF               	rrcf	223,w,c
  4238   00207A  32E8               	rrcf	wreg,f,c
  4239   00207C  32E8               	rrcf	wreg,f,c
  4240   00207E  0B07               	andlw	7
  4241   002080  6E18               	movwf	??_gpio_pin_direction_intialize^0,c
  4242   002082  0E01               	movlw	1
  4243   002084  6E19               	movwf	(??_gpio_pin_direction_intialize+1)^0,c
  4244   002086  2A18               	incf	??_gpio_pin_direction_intialize^0,f,c
  4245   002088  EF48  F010         	goto	u4614
  4246   00208C                     u4615:
  4247   00208C  90D8               	bcf	status,0,c
  4248   00208E  3619               	rlcf	(??_gpio_pin_direction_intialize+1)^0,f,c
  4249   002090                     u4614:
  4250   002090  2E18               	decfsz	??_gpio_pin_direction_intialize^0,f,c
  4251   002092  EF46  F010         	goto	u4615
  4252   002096  5019               	movf	(??_gpio_pin_direction_intialize+1)^0,w,c
  4253   002098  0AFF               	xorlw	255
  4254   00209A  6E1A               	movwf	(??_gpio_pin_direction_intialize+2)^0,c
  4255   00209C  C016  FFD9         	movff	gpio_pin_direction_intialize@pin_config,fsr2l
  4256   0020A0  C017  FFDA         	movff	gpio_pin_direction_intialize@pin_config+1,fsr2h
  4257   0020A4  50DF               	movf	223,w,c
  4258   0020A6  0B07               	andlw	7
  4259   0020A8  6E1B               	movwf	(??_gpio_pin_direction_intialize+3)^0,c
  4260   0020AA  501B               	movf	(??_gpio_pin_direction_intialize+3)^0,w,c
  4261   0020AC  0D02               	mullw	2
  4262   0020AE  0E2F               	movlw	low _tris_register
  4263   0020B0  24F3               	addwf	243,w,c
  4264   0020B2  6ED9               	movwf	fsr2l,c
  4265   0020B4  0E01               	movlw	high _tris_register
  4266   0020B6  20F4               	addwfc	prodh,w,c
  4267   0020B8  6EDA               	movwf	fsr2h,c
  4268   0020BA  CFDE F01C          	movff	postinc2,??_gpio_pin_direction_intialize+4
  4269   0020BE  CFDD F01D          	movff	postdec2,??_gpio_pin_direction_intialize+5
  4270   0020C2  C01C  FFD9         	movff	??_gpio_pin_direction_intialize+4,fsr2l
  4271   0020C6  C01D  FFDA         	movff	??_gpio_pin_direction_intialize+5,fsr2h
  4272   0020CA  501A               	movf	(??_gpio_pin_direction_intialize+2)^0,w,c
  4273   0020CC  16DF               	andwf	indf2,f,c
  4274                           
  4275                           ;MCAL_layer/GPIO/hal_gpio.c: 24:                 break;
  4276   0020CE  EFB8  F010         	goto	l5454
  4277   0020D2                     l5448:
  4278                           
  4279                           ;MCAL_layer/GPIO/hal_gpio.c: 26:                 (*tris_register[pin_config->port] |= ((
      +                          uint8) 1 << pin_config->pin));
  4280   0020D2  C016  FFD9         	movff	gpio_pin_direction_intialize@pin_config,fsr2l
  4281   0020D6  C017  FFDA         	movff	gpio_pin_direction_intialize@pin_config+1,fsr2h
  4282   0020DA  30DF               	rrcf	223,w,c
  4283   0020DC  32E8               	rrcf	wreg,f,c
  4284   0020DE  32E8               	rrcf	wreg,f,c
  4285   0020E0  0B07               	andlw	7
  4286   0020E2  6E18               	movwf	??_gpio_pin_direction_intialize^0,c
  4287   0020E4  0E01               	movlw	1
  4288   0020E6  6E19               	movwf	(??_gpio_pin_direction_intialize+1)^0,c
  4289   0020E8  2A18               	incf	??_gpio_pin_direction_intialize^0,f,c
  4290   0020EA  EF79  F010         	goto	u4624
  4291   0020EE                     u4625:
  4292   0020EE  90D8               	bcf	status,0,c
  4293   0020F0  3619               	rlcf	(??_gpio_pin_direction_intialize+1)^0,f,c
  4294   0020F2                     u4624:
  4295   0020F2  2E18               	decfsz	??_gpio_pin_direction_intialize^0,f,c
  4296   0020F4  EF77  F010         	goto	u4625
  4297   0020F8  C016  FFD9         	movff	gpio_pin_direction_intialize@pin_config,fsr2l
  4298   0020FC  C017  FFDA         	movff	gpio_pin_direction_intialize@pin_config+1,fsr2h
  4299   002100  50DF               	movf	223,w,c
  4300   002102  0B07               	andlw	7
  4301   002104  6E1A               	movwf	(??_gpio_pin_direction_intialize+2)^0,c
  4302   002106  501A               	movf	(??_gpio_pin_direction_intialize+2)^0,w,c
  4303   002108  0D02               	mullw	2
  4304   00210A  0E2F               	movlw	low _tris_register
  4305   00210C  24F3               	addwf	243,w,c
  4306   00210E  6ED9               	movwf	fsr2l,c
  4307   002110  0E01               	movlw	high _tris_register
  4308   002112  20F4               	addwfc	prodh,w,c
  4309   002114  6EDA               	movwf	fsr2h,c
  4310   002116  CFDE F01B          	movff	postinc2,??_gpio_pin_direction_intialize+3
  4311   00211A  CFDD F01C          	movff	postdec2,??_gpio_pin_direction_intialize+4
  4312   00211E  C01B  FFD9         	movff	??_gpio_pin_direction_intialize+3,fsr2l
  4313   002122  C01C  FFDA         	movff	??_gpio_pin_direction_intialize+4,fsr2h
  4314   002126  5019               	movf	(??_gpio_pin_direction_intialize+1)^0,w,c
  4315   002128  12DF               	iorwf	indf2,f,c
  4316                           
  4317                           ;MCAL_layer/GPIO/hal_gpio.c: 27:                 break;
  4318   00212A  EFB8  F010         	goto	l5454
  4319   00212E                     l5452:
  4320   00212E  C016  FFD9         	movff	gpio_pin_direction_intialize@pin_config,fsr2l
  4321   002132  C017  FFDA         	movff	gpio_pin_direction_intialize@pin_config+1,fsr2h
  4322   002136  BCDF               	btfsc	indf2,6,c
  4323   002138  EFA0  F010         	goto	u4631
  4324   00213C  EFA3  F010         	goto	u4630
  4325   002140                     u4631:
  4326   002140  0E01               	movlw	1
  4327   002142  EFA4  F010         	goto	u4640
  4328   002146                     u4630:
  4329   002146  0E00               	movlw	0
  4330   002148                     u4640:
  4331   002148  6E18               	movwf	??_gpio_pin_direction_intialize^0,c
  4332   00214A  6A19               	clrf	(??_gpio_pin_direction_intialize+1)^0,c
  4333                           
  4334                           ; Switch on 2 bytes has been partitioned into a top level switch of size 1, and 1 sub-sw
      +                          itches
  4335                           ; Switch size 1, requested type "simple"
  4336                           ; Number of cases is 1, Range of values is 0 to 0
  4337                           ; switch strategies available:
  4338                           ; Name         Instructions Cycles
  4339                           ; simple_byte            4     3 (average)
  4340                           ;	Chosen strategy is simple_byte
  4341   00214C  5019               	movf	(??_gpio_pin_direction_intialize+1)^0,w,c
  4342   00214E  0A00               	xorlw	0	; case 0
  4343   002150  B4D8               	btfsc	status,2,c
  4344   002152  EFAD  F010         	goto	l8674
  4345   002156  EF34  F010         	goto	l5444
  4346   00215A                     l8674:
  4347                           
  4348                           ; Switch size 1, requested type "simple"
  4349                           ; Number of cases is 2, Range of values is 0 to 1
  4350                           ; switch strategies available:
  4351                           ; Name         Instructions Cycles
  4352                           ; simple_byte            7     4 (average)
  4353                           ;	Chosen strategy is simple_byte
  4354   00215A  5018               	movf	??_gpio_pin_direction_intialize^0,w,c
  4355   00215C  0A00               	xorlw	0	; case 0
  4356   00215E  B4D8               	btfsc	status,2,c
  4357   002160  EF38  F010         	goto	l5446
  4358   002164  0A01               	xorlw	1	; case 1
  4359   002166  B4D8               	btfsc	status,2,c
  4360   002168  EF69  F010         	goto	l5448
  4361   00216C  EF34  F010         	goto	l5444
  4362   002170                     l5454:
  4363                           
  4364                           ;MCAL_layer/GPIO/hal_gpio.c: 31:      return ret ;
  4365   002170  501E               	movf	gpio_pin_direction_intialize@ret^0,w,c
  4366   002172  0012               	return		;funcret
  4367   002174                     __end_of_gpio_pin_direction_intialize:
  4368                           	callstack 0
  4369                           
  4370 ;; *************** function _interruptManger *****************
  4371 ;; Defined at:
  4372 ;;		line 34 in file "MCAL_layer/Interrupt/mcal_interrupt_manager.c"
  4373 ;; Parameters:    Size  Location     Type
  4374 ;;		None
  4375 ;; Auto vars:     Size  Location     Type
  4376 ;;		None
  4377 ;; Return value:  Size  Location     Type
  4378 ;;                  1    wreg      void 
  4379 ;; Registers used:
  4380 ;;		wreg, fsr2l, fsr2h, status,2, status,0, pcl, pclath, pclatu, tosl, prodl, prodh, cstack
  4381 ;; Tracked objects:
  4382 ;;		On entry : 0/0
  4383 ;;		On exit  : 0/0
  4384 ;;		Unchanged: 0/0
  4385 ;; Data sizes:     COMRAM   BANK0   BANK1   BANK2   BANK3   BANK4   BANK5   BANK6   BANK7   BANK8   BANK9  BANK10  BANK1
      +1  BANK12  BANK13  BANK14  BANK15
  4386 ;;      Params:         0       0       0       0       0       0       0       0       0       0       0       0       
      +0       0       0       0       0
  4387 ;;      Locals:         0       0       0       0       0       0       0       0       0       0       0       0       
      +0       0       0       0       0
  4388 ;;      Temps:          6       0       0       0       0       0       0       0       0       0       0       0       
      +0       0       0       0       0
  4389 ;;      Totals:         6       0       0       0       0       0       0       0       0       0       0       0       
      +0       0       0       0       0
  4390 ;;Total ram usage:        6 bytes
  4391 ;; Hardware stack levels used: 1
  4392 ;; Hardware stack levels required when called: 4
  4393 ;; This function calls:
  4394 ;;		_ADC_ISR
  4395 ;;		_CCP1_ISR
  4396 ;;		_CCP2_ISR
  4397 ;;		_INT0_ISR
  4398 ;;		_INT1_ISR
  4399 ;;		_MSSP_I2C_BUSC_ISR
  4400 ;;		_MSSP_I2C_ISR
  4401 ;;		_RB4_ISR
  4402 ;;		_RB5_ISR
  4403 ;;		_RB6_ISR
  4404 ;;		_RB7_ISR
  4405 ;;		_TM0_ISR
  4406 ;;		_TM1_ISR
  4407 ;;		_TM2_ISR
  4408 ;;		_TM3_ISR
  4409 ;;		_USART_RX_ISR
  4410 ;;		_USART_TX_ISR
  4411 ;; This function is called by:
  4412 ;;		Interrupt level 2
  4413 ;; This function uses a non-reentrant model
  4414 ;;
  4415                           
  4416                           	psect	intcode
  4417   000008                     __pintcode:
  4418                           	callstack 0
  4419   000008                     _interruptManger:
  4420                           	callstack 23
  4421                           
  4422                           ;incstack = 0
  4423   000008  826A               	bsf	int$flags,1,c	;set compiler interrupt flag (level 2)
  4424   00000A  ED6C  F00A         	call	int_func,f	;refresh shadow registers
  4425                           
  4426                           	psect	intcode_body
  4427   0014D8                     __pintcode_body:
  4428                           	callstack 23
  4429   0014D8                     int_func:
  4430                           	callstack 23
  4431   0014D8  0006               	pop		; remove dummy address from shadow register refresh
  4432   0014DA  CFFA F010          	movff	pclath,??_interruptManger
  4433   0014DE  CFFB F011          	movff	pclatu,??_interruptManger+1
  4434   0014E2  CFD9 F012          	movff	fsr2l,??_interruptManger+2
  4435   0014E6  CFDA F013          	movff	fsr2h,??_interruptManger+3
  4436   0014EA  CFF3 F014          	movff	prodl,??_interruptManger+4
  4437   0014EE  CFF4 F015          	movff	prodh,??_interruptManger+5
  4438   0014F2                     
  4439                           ;MCAL_layer/Interrupt/mcal_interrupt_manager.c: 35:     if((1 == INTCONbits.INT0IE)&&(1 
      +                          == INTCONbits.INT0IF))
  4440   0014F2  A8F2               	btfss	242,4,c	;volatile
  4441   0014F4  EF7E  F00A         	goto	i2u730_41
  4442   0014F8  EF80  F00A         	goto	i2u730_40
  4443   0014FC                     i2u730_41:
  4444   0014FC  EF89  F00A         	goto	i2l917
  4445   001500                     i2u730_40:
  4446   001500  A2F2               	btfss	242,1,c	;volatile
  4447   001502  EF85  F00A         	goto	i2u731_41
  4448   001506  EF87  F00A         	goto	i2u731_40
  4449   00150A                     i2u731_41:
  4450   00150A  EF89  F00A         	goto	i2l917
  4451   00150E                     i2u731_40:
  4452   00150E                     
  4453                           ;MCAL_layer/Interrupt/mcal_interrupt_manager.c: 36:     {;MCAL_layer/Interrupt/mcal_inte
      +                          rrupt_manager.c: 37:         INT0_ISR();
  4454   00150E  EC7D  F017         	call	_INT0_ISR	;wreg free
  4455   001512                     i2l917:
  4456                           
  4457                           ;MCAL_layer/Interrupt/mcal_interrupt_manager.c: 40:       if((1 == INTCON3bits.INT1IE)&&
      +                          (1 == INTCON3bits.INT1IF))
  4458   001512  A6F0               	btfss	240,3,c	;volatile
  4459   001514  EF8E  F00A         	goto	i2u732_41
  4460   001518  EF90  F00A         	goto	i2u732_40
  4461   00151C                     i2u732_41:
  4462   00151C  EF99  F00A         	goto	i2l919
  4463   001520                     i2u732_40:
  4464   001520  A0F0               	btfss	240,0,c	;volatile
  4465   001522  EF95  F00A         	goto	i2u733_41
  4466   001526  EF97  F00A         	goto	i2u733_40
  4467   00152A                     i2u733_41:
  4468   00152A  EF99  F00A         	goto	i2l919
  4469   00152E                     i2u733_40:
  4470   00152E                     
  4471                           ;MCAL_layer/Interrupt/mcal_interrupt_manager.c: 41:     {;MCAL_layer/Interrupt/mcal_inte
      +                          rrupt_manager.c: 42:         INT1_ISR();
  4472   00152E  EC65  F017         	call	_INT1_ISR	;wreg free
  4473   001532                     i2l919:
  4474                           
  4475                           ;MCAL_layer/Interrupt/mcal_interrupt_manager.c: 45:      if((1 == INTCON3bits.INT2IE)&&(
      +                          1 == INTCON3bits.INT2IF))
  4476   001532  A8F0               	btfss	240,4,c	;volatile
  4477   001534  EF9E  F00A         	goto	i2u734_41
  4478   001538  EFA0  F00A         	goto	i2u734_40
  4479   00153C                     i2u734_41:
  4480   00153C  EFA9  F00A         	goto	i2l921
  4481   001540                     i2u734_40:
  4482   001540  A2F0               	btfss	240,1,c	;volatile
  4483   001542  EFA5  F00A         	goto	i2u735_41
  4484   001546  EFA7  F00A         	goto	i2u735_40
  4485   00154A                     i2u735_41:
  4486   00154A  EFA9  F00A         	goto	i2l921
  4487   00154E                     i2u735_40:
  4488   00154E                     
  4489                           ;MCAL_layer/Interrupt/mcal_interrupt_manager.c: 46:     {;MCAL_layer/Interrupt/mcal_inte
      +                          rrupt_manager.c: 47:         INT1_ISR();
  4490   00154E  EC65  F017         	call	_INT1_ISR	;wreg free
  4491   001552                     i2l921:
  4492                           
  4493                           ;MCAL_layer/Interrupt/mcal_interrupt_manager.c: 50:      if((1 == PIE1bits.ADIE)&&(1 == 
      +                          PIR1bits.ADIF))
  4494   001552  AC9D               	btfss	157,6,c	;volatile
  4495   001554  EFAE  F00A         	goto	i2u736_41
  4496   001558  EFB0  F00A         	goto	i2u736_40
  4497   00155C                     i2u736_41:
  4498   00155C  EFB9  F00A         	goto	i2l923
  4499   001560                     i2u736_40:
  4500   001560  AC9E               	btfss	158,6,c	;volatile
  4501   001562  EFB5  F00A         	goto	i2u737_41
  4502   001566  EFB7  F00A         	goto	i2u737_40
  4503   00156A                     i2u737_41:
  4504   00156A  EFB9  F00A         	goto	i2l923
  4505   00156E                     i2u737_40:
  4506   00156E                     
  4507                           ;MCAL_layer/Interrupt/mcal_interrupt_manager.c: 51:     {;MCAL_layer/Interrupt/mcal_inte
      +                          rrupt_manager.c: 52:         ADC_ISR();
  4508   00156E  EC1B  F018         	call	_ADC_ISR	;wreg free
  4509   001572                     i2l923:
  4510                           
  4511                           ;MCAL_layer/Interrupt/mcal_interrupt_manager.c: 55:     if((1 == INTCONbits.RBIE)&&(1 ==
      +                           INTCONbits.RBIF)&&(PORTBbits.RB4 == GPIO_HIGH)
  4512   001572  A6F2               	btfss	242,3,c	;volatile
  4513   001574  EFBE  F00A         	goto	i2u738_41
  4514   001578  EFC0  F00A         	goto	i2u738_40
  4515   00157C                     i2u738_41:
  4516   00157C  EFDB  F00A         	goto	i2l925
  4517   001580                     i2u738_40:
  4518   001580  A0F2               	btfss	242,0,c	;volatile
  4519   001582  EFC5  F00A         	goto	i2u739_41
  4520   001586  EFC7  F00A         	goto	i2u739_40
  4521   00158A                     i2u739_41:
  4522   00158A  EFDB  F00A         	goto	i2l925
  4523   00158E                     i2u739_40:
  4524   00158E  A881               	btfss	129,4,c	;volatile
  4525   001590  EFCC  F00A         	goto	i2u740_41
  4526   001594  EFCE  F00A         	goto	i2u740_40
  4527   001598                     i2u740_41:
  4528   001598  EFDB  F00A         	goto	i2l925
  4529   00159C                     i2u740_40:
  4530   00159C  0468               	decf	_RB4_Flag^0,w,c	;volatile
  4531   00159E  A4D8               	btfss	status,2,c
  4532   0015A0  EFD4  F00A         	goto	i2u741_41
  4533   0015A4  EFD6  F00A         	goto	i2u741_40
  4534   0015A8                     i2u741_41:
  4535   0015A8  EFDB  F00A         	goto	i2l925
  4536   0015AC                     i2u741_40:
  4537   0015AC                     
  4538                           ;MCAL_layer/Interrupt/mcal_interrupt_manager.c: 57:     {;MCAL_layer/Interrupt/mcal_inte
      +                          rrupt_manager.c: 58:         RB4_Flag = 0 ;
  4539   0015AC  0E00               	movlw	0
  4540   0015AE  6E68               	movwf	_RB4_Flag^0,c	;volatile
  4541   0015B0                     
  4542                           ;MCAL_layer/Interrupt/mcal_interrupt_manager.c: 59:         RB4_ISR(1);
  4543   0015B0  0E01               	movlw	1
  4544   0015B2  EC49  F014         	call	_RB4_ISR
  4545   0015B6                     i2l925:
  4546                           
  4547                           ;MCAL_layer/Interrupt/mcal_interrupt_manager.c: 62:     if((1 == INTCONbits.RBIE)&&(1 ==
      +                           INTCONbits.RBIF)&&(PORTBbits.RB4 == GPIO_LOW)
  4548   0015B6  A6F2               	btfss	242,3,c	;volatile
  4549   0015B8  EFE0  F00A         	goto	i2u742_41
  4550   0015BC  EFE2  F00A         	goto	i2u742_40
  4551   0015C0                     i2u742_41:
  4552   0015C0  EFFD  F00A         	goto	i2l7462
  4553   0015C4                     i2u742_40:
  4554   0015C4  A0F2               	btfss	242,0,c	;volatile
  4555   0015C6  EFE7  F00A         	goto	i2u743_41
  4556   0015CA  EFE9  F00A         	goto	i2u743_40
  4557   0015CE                     i2u743_41:
  4558   0015CE  EFFD  F00A         	goto	i2l7462
  4559   0015D2                     i2u743_40:
  4560   0015D2  B881               	btfsc	129,4,c	;volatile
  4561   0015D4  EFEE  F00A         	goto	i2u744_41
  4562   0015D8  EFF0  F00A         	goto	i2u744_40
  4563   0015DC                     i2u744_41:
  4564   0015DC  EFFD  F00A         	goto	i2l7462
  4565   0015E0                     i2u744_40:
  4566   0015E0  5068               	movf	_RB4_Flag^0,w,c	;volatile
  4567   0015E2  A4D8               	btfss	status,2,c
  4568   0015E4  EFF6  F00A         	goto	i2u745_41
  4569   0015E8  EFF8  F00A         	goto	i2u745_40
  4570   0015EC                     i2u745_41:
  4571   0015EC  EFFD  F00A         	goto	i2l7462
  4572   0015F0                     i2u745_40:
  4573   0015F0                     
  4574                           ;MCAL_layer/Interrupt/mcal_interrupt_manager.c: 64:     {;MCAL_layer/Interrupt/mcal_inte
      +                          rrupt_manager.c: 65:         RB4_Flag = 1 ;
  4575   0015F0  0E01               	movlw	1
  4576   0015F2  6E68               	movwf	_RB4_Flag^0,c	;volatile
  4577   0015F4                     
  4578                           ;MCAL_layer/Interrupt/mcal_interrupt_manager.c: 66:         RB4_ISR(0);
  4579   0015F4  0E00               	movlw	0
  4580   0015F6  EC49  F014         	call	_RB4_ISR
  4581   0015FA                     i2l7462:
  4582                           
  4583                           ;MCAL_layer/Interrupt/mcal_interrupt_manager.c: 68:      if((1 == INTCONbits.RBIE)&&(1 =
      +                          = INTCONbits.RBIF)&&(PORTBbits.RB5 == GPIO_HIGH)
  4584   0015FA  A6F2               	btfss	242,3,c	;volatile
  4585   0015FC  EF02  F00B         	goto	i2u746_41
  4586   001600  EF04  F00B         	goto	i2u746_40
  4587   001604                     i2u746_41:
  4588   001604  EF1F  F00B         	goto	i2l928
  4589   001608                     i2u746_40:
  4590   001608  A0F2               	btfss	242,0,c	;volatile
  4591   00160A  EF09  F00B         	goto	i2u747_41
  4592   00160E  EF0B  F00B         	goto	i2u747_40
  4593   001612                     i2u747_41:
  4594   001612  EF1F  F00B         	goto	i2l928
  4595   001616                     i2u747_40:
  4596   001616  AA81               	btfss	129,5,c	;volatile
  4597   001618  EF10  F00B         	goto	i2u748_41
  4598   00161C  EF12  F00B         	goto	i2u748_40
  4599   001620                     i2u748_41:
  4600   001620  EF1F  F00B         	goto	i2l928
  4601   001624                     i2u748_40:
  4602   001624  0467               	decf	_RB5_Flag^0,w,c	;volatile
  4603   001626  A4D8               	btfss	status,2,c
  4604   001628  EF18  F00B         	goto	i2u749_41
  4605   00162C  EF1A  F00B         	goto	i2u749_40
  4606   001630                     i2u749_41:
  4607   001630  EF1F  F00B         	goto	i2l928
  4608   001634                     i2u749_40:
  4609   001634                     
  4610                           ;MCAL_layer/Interrupt/mcal_interrupt_manager.c: 70:     {;MCAL_layer/Interrupt/mcal_inte
      +                          rrupt_manager.c: 71:         RB5_Flag =0 ;
  4611   001634  0E00               	movlw	0
  4612   001636  6E67               	movwf	_RB5_Flag^0,c	;volatile
  4613   001638                     
  4614                           ;MCAL_layer/Interrupt/mcal_interrupt_manager.c: 72:         RB5_ISR(1);
  4615   001638  0E01               	movlw	1
  4616   00163A  EC08  F014         	call	_RB5_ISR
  4617   00163E                     i2l928:
  4618                           
  4619                           ;MCAL_layer/Interrupt/mcal_interrupt_manager.c: 75:     if((1 == INTCONbits.RBIE)&&(1 ==
      +                           INTCONbits.RBIF)&&(PORTBbits.RB5 == GPIO_LOW)
  4620   00163E  A6F2               	btfss	242,3,c	;volatile
  4621   001640  EF24  F00B         	goto	i2u750_41
  4622   001644  EF26  F00B         	goto	i2u750_40
  4623   001648                     i2u750_41:
  4624   001648  EF41  F00B         	goto	i2l930
  4625   00164C                     i2u750_40:
  4626   00164C  A0F2               	btfss	242,0,c	;volatile
  4627   00164E  EF2B  F00B         	goto	i2u751_41
  4628   001652  EF2D  F00B         	goto	i2u751_40
  4629   001656                     i2u751_41:
  4630   001656  EF41  F00B         	goto	i2l930
  4631   00165A                     i2u751_40:
  4632   00165A  BA81               	btfsc	129,5,c	;volatile
  4633   00165C  EF32  F00B         	goto	i2u752_41
  4634   001660  EF34  F00B         	goto	i2u752_40
  4635   001664                     i2u752_41:
  4636   001664  EF41  F00B         	goto	i2l930
  4637   001668                     i2u752_40:
  4638   001668  5067               	movf	_RB5_Flag^0,w,c	;volatile
  4639   00166A  A4D8               	btfss	status,2,c
  4640   00166C  EF3A  F00B         	goto	i2u753_41
  4641   001670  EF3C  F00B         	goto	i2u753_40
  4642   001674                     i2u753_41:
  4643   001674  EF41  F00B         	goto	i2l930
  4644   001678                     i2u753_40:
  4645   001678                     
  4646                           ;MCAL_layer/Interrupt/mcal_interrupt_manager.c: 77:     {;MCAL_layer/Interrupt/mcal_inte
      +                          rrupt_manager.c: 78:         RB5_Flag = 1 ;
  4647   001678  0E01               	movlw	1
  4648   00167A  6E67               	movwf	_RB5_Flag^0,c	;volatile
  4649   00167C                     
  4650                           ;MCAL_layer/Interrupt/mcal_interrupt_manager.c: 79:         RB5_ISR(0);
  4651   00167C  0E00               	movlw	0
  4652   00167E  EC08  F014         	call	_RB5_ISR
  4653   001682                     i2l930:
  4654                           
  4655                           ;MCAL_layer/Interrupt/mcal_interrupt_manager.c: 83:       if((1 == INTCONbits.RBIE)&&(1 
      +                          == INTCONbits.RBIF)&&(PORTBbits.RB6 == GPIO_HIGH)
  4656   001682  A6F2               	btfss	242,3,c	;volatile
  4657   001684  EF46  F00B         	goto	i2u754_41
  4658   001688  EF48  F00B         	goto	i2u754_40
  4659   00168C                     i2u754_41:
  4660   00168C  EF63  F00B         	goto	i2l932
  4661   001690                     i2u754_40:
  4662   001690  A0F2               	btfss	242,0,c	;volatile
  4663   001692  EF4D  F00B         	goto	i2u755_41
  4664   001696  EF4F  F00B         	goto	i2u755_40
  4665   00169A                     i2u755_41:
  4666   00169A  EF63  F00B         	goto	i2l932
  4667   00169E                     i2u755_40:
  4668   00169E  AC81               	btfss	129,6,c	;volatile
  4669   0016A0  EF54  F00B         	goto	i2u756_41
  4670   0016A4  EF56  F00B         	goto	i2u756_40
  4671   0016A8                     i2u756_41:
  4672   0016A8  EF63  F00B         	goto	i2l932
  4673   0016AC                     i2u756_40:
  4674   0016AC  0466               	decf	_RB6_Flag^0,w,c	;volatile
  4675   0016AE  A4D8               	btfss	status,2,c
  4676   0016B0  EF5C  F00B         	goto	i2u757_41
  4677   0016B4  EF5E  F00B         	goto	i2u757_40
  4678   0016B8                     i2u757_41:
  4679   0016B8  EF63  F00B         	goto	i2l932
  4680   0016BC                     i2u757_40:
  4681   0016BC                     
  4682                           ;MCAL_layer/Interrupt/mcal_interrupt_manager.c: 85:     {;MCAL_layer/Interrupt/mcal_inte
      +                          rrupt_manager.c: 86:         RB6_Flag =0 ;
  4683   0016BC  0E00               	movlw	0
  4684   0016BE  6E66               	movwf	_RB6_Flag^0,c	;volatile
  4685   0016C0                     
  4686                           ;MCAL_layer/Interrupt/mcal_interrupt_manager.c: 87:         RB6_ISR(1);
  4687   0016C0  0E01               	movlw	1
  4688   0016C2  ECC7  F013         	call	_RB6_ISR
  4689   0016C6                     i2l932:
  4690                           
  4691                           ;MCAL_layer/Interrupt/mcal_interrupt_manager.c: 90:     if((1 == INTCONbits.RBIE)&&(1 ==
      +                           INTCONbits.RBIF)&&(PORTBbits.RB6 == GPIO_LOW)
  4692   0016C6  A6F2               	btfss	242,3,c	;volatile
  4693   0016C8  EF68  F00B         	goto	i2u758_41
  4694   0016CC  EF6A  F00B         	goto	i2u758_40
  4695   0016D0                     i2u758_41:
  4696   0016D0  EF85  F00B         	goto	i2l934
  4697   0016D4                     i2u758_40:
  4698   0016D4  A0F2               	btfss	242,0,c	;volatile
  4699   0016D6  EF6F  F00B         	goto	i2u759_41
  4700   0016DA  EF71  F00B         	goto	i2u759_40
  4701   0016DE                     i2u759_41:
  4702   0016DE  EF85  F00B         	goto	i2l934
  4703   0016E2                     i2u759_40:
  4704   0016E2  BC81               	btfsc	129,6,c	;volatile
  4705   0016E4  EF76  F00B         	goto	i2u760_41
  4706   0016E8  EF78  F00B         	goto	i2u760_40
  4707   0016EC                     i2u760_41:
  4708   0016EC  EF85  F00B         	goto	i2l934
  4709   0016F0                     i2u760_40:
  4710   0016F0  5066               	movf	_RB6_Flag^0,w,c	;volatile
  4711   0016F2  A4D8               	btfss	status,2,c
  4712   0016F4  EF7E  F00B         	goto	i2u761_41
  4713   0016F8  EF80  F00B         	goto	i2u761_40
  4714   0016FC                     i2u761_41:
  4715   0016FC  EF85  F00B         	goto	i2l934
  4716   001700                     i2u761_40:
  4717   001700                     
  4718                           ;MCAL_layer/Interrupt/mcal_interrupt_manager.c: 92:     {;MCAL_layer/Interrupt/mcal_inte
      +                          rrupt_manager.c: 93:         RB6_Flag = 1 ;
  4719   001700  0E01               	movlw	1
  4720   001702  6E66               	movwf	_RB6_Flag^0,c	;volatile
  4721   001704                     
  4722                           ;MCAL_layer/Interrupt/mcal_interrupt_manager.c: 94:         RB6_ISR(0);
  4723   001704  0E00               	movlw	0
  4724   001706  ECC7  F013         	call	_RB6_ISR
  4725   00170A                     i2l934:
  4726                           
  4727                           ;MCAL_layer/Interrupt/mcal_interrupt_manager.c: 97:      if((1 == INTCONbits.RBIE)&&(1 =
      +                          = INTCONbits.RBIF)&&(PORTBbits.RB7 == GPIO_HIGH)
  4728   00170A  A6F2               	btfss	242,3,c	;volatile
  4729   00170C  EF8A  F00B         	goto	i2u762_41
  4730   001710  EF8C  F00B         	goto	i2u762_40
  4731   001714                     i2u762_41:
  4732   001714  EFA7  F00B         	goto	i2l936
  4733   001718                     i2u762_40:
  4734   001718  A0F2               	btfss	242,0,c	;volatile
  4735   00171A  EF91  F00B         	goto	i2u763_41
  4736   00171E  EF93  F00B         	goto	i2u763_40
  4737   001722                     i2u763_41:
  4738   001722  EFA7  F00B         	goto	i2l936
  4739   001726                     i2u763_40:
  4740   001726  AE81               	btfss	129,7,c	;volatile
  4741   001728  EF98  F00B         	goto	i2u764_41
  4742   00172C  EF9A  F00B         	goto	i2u764_40
  4743   001730                     i2u764_41:
  4744   001730  EFA7  F00B         	goto	i2l936
  4745   001734                     i2u764_40:
  4746   001734  0465               	decf	_RB7_Flag^0,w,c	;volatile
  4747   001736  A4D8               	btfss	status,2,c
  4748   001738  EFA0  F00B         	goto	i2u765_41
  4749   00173C  EFA2  F00B         	goto	i2u765_40
  4750   001740                     i2u765_41:
  4751   001740  EFA7  F00B         	goto	i2l936
  4752   001744                     i2u765_40:
  4753   001744                     
  4754                           ;MCAL_layer/Interrupt/mcal_interrupt_manager.c: 99:     {;MCAL_layer/Interrupt/mcal_inte
      +                          rrupt_manager.c: 100:         RB7_Flag =0 ;
  4755   001744  0E00               	movlw	0
  4756   001746  6E65               	movwf	_RB7_Flag^0,c	;volatile
  4757   001748                     
  4758                           ;MCAL_layer/Interrupt/mcal_interrupt_manager.c: 101:         RB7_ISR(1);
  4759   001748  0E01               	movlw	1
  4760   00174A  EC86  F013         	call	_RB7_ISR
  4761   00174E                     i2l936:
  4762                           
  4763                           ;MCAL_layer/Interrupt/mcal_interrupt_manager.c: 104:     if((1 == INTCONbits.RBIE)&&(1 =
      +                          = INTCONbits.RBIF)&&(PORTBbits.RB7 == GPIO_LOW)
  4764   00174E  A6F2               	btfss	242,3,c	;volatile
  4765   001750  EFAC  F00B         	goto	i2u766_41
  4766   001754  EFAE  F00B         	goto	i2u766_40
  4767   001758                     i2u766_41:
  4768   001758  EFC9  F00B         	goto	i2l938
  4769   00175C                     i2u766_40:
  4770   00175C  A0F2               	btfss	242,0,c	;volatile
  4771   00175E  EFB3  F00B         	goto	i2u767_41
  4772   001762  EFB5  F00B         	goto	i2u767_40
  4773   001766                     i2u767_41:
  4774   001766  EFC9  F00B         	goto	i2l938
  4775   00176A                     i2u767_40:
  4776   00176A  BE81               	btfsc	129,7,c	;volatile
  4777   00176C  EFBA  F00B         	goto	i2u768_41
  4778   001770  EFBC  F00B         	goto	i2u768_40
  4779   001774                     i2u768_41:
  4780   001774  EFC9  F00B         	goto	i2l938
  4781   001778                     i2u768_40:
  4782   001778  5065               	movf	_RB7_Flag^0,w,c	;volatile
  4783   00177A  A4D8               	btfss	status,2,c
  4784   00177C  EFC2  F00B         	goto	i2u769_41
  4785   001780  EFC4  F00B         	goto	i2u769_40
  4786   001784                     i2u769_41:
  4787   001784  EFC9  F00B         	goto	i2l938
  4788   001788                     i2u769_40:
  4789   001788                     
  4790                           ;MCAL_layer/Interrupt/mcal_interrupt_manager.c: 106:     {;MCAL_layer/Interrupt/mcal_int
      +                          errupt_manager.c: 107:         RB7_Flag = 1 ;
  4791   001788  0E01               	movlw	1
  4792   00178A  6E65               	movwf	_RB7_Flag^0,c	;volatile
  4793   00178C                     
  4794                           ;MCAL_layer/Interrupt/mcal_interrupt_manager.c: 108:         RB7_ISR(0);
  4795   00178C  0E00               	movlw	0
  4796   00178E  EC86  F013         	call	_RB7_ISR
  4797   001792                     i2l938:
  4798                           
  4799                           ;MCAL_layer/Interrupt/mcal_interrupt_manager.c: 111:     if((1 == INTCONbits.TMR0IE )&&(
      +                          1 == INTCONbits.TMR0IF ))
  4800   001792  AAF2               	btfss	242,5,c	;volatile
  4801   001794  EFCE  F00B         	goto	i2u770_41
  4802   001798  EFD0  F00B         	goto	i2u770_40
  4803   00179C                     i2u770_41:
  4804   00179C  EFD9  F00B         	goto	i2l940
  4805   0017A0                     i2u770_40:
  4806   0017A0  A4F2               	btfss	242,2,c	;volatile
  4807   0017A2  EFD5  F00B         	goto	i2u771_41
  4808   0017A6  EFD7  F00B         	goto	i2u771_40
  4809   0017AA                     i2u771_41:
  4810   0017AA  EFD9  F00B         	goto	i2l940
  4811   0017AE                     i2u771_40:
  4812   0017AE                     
  4813                           ;MCAL_layer/Interrupt/mcal_interrupt_manager.c: 112:     {;MCAL_layer/Interrupt/mcal_int
      +                          errupt_manager.c: 113:         TM0_ISR();
  4814   0017AE  EC17  F017         	call	_TM0_ISR	;wreg free
  4815   0017B2                     i2l940:
  4816                           
  4817                           ;MCAL_layer/Interrupt/mcal_interrupt_manager.c: 116:     if((1 == PIE1bits.TMR1IE )&&(1 
      +                          == PIR1bits.TMR1IF ))
  4818   0017B2  A09D               	btfss	157,0,c	;volatile
  4819   0017B4  EFDE  F00B         	goto	i2u772_41
  4820   0017B8  EFE0  F00B         	goto	i2u772_40
  4821   0017BC                     i2u772_41:
  4822   0017BC  EFE9  F00B         	goto	i2l942
  4823   0017C0                     i2u772_40:
  4824   0017C0  A09E               	btfss	158,0,c	;volatile
  4825   0017C2  EFE5  F00B         	goto	i2u773_41
  4826   0017C6  EFE7  F00B         	goto	i2u773_40
  4827   0017CA                     i2u773_41:
  4828   0017CA  EFE9  F00B         	goto	i2l942
  4829   0017CE                     i2u773_40:
  4830   0017CE                     
  4831                           ;MCAL_layer/Interrupt/mcal_interrupt_manager.c: 117:     {;MCAL_layer/Interrupt/mcal_int
      +                          errupt_manager.c: 118:         TM1_ISR();
  4832   0017CE  ECFB  F016         	call	_TM1_ISR	;wreg free
  4833   0017D2                     i2l942:
  4834                           
  4835                           ;MCAL_layer/Interrupt/mcal_interrupt_manager.c: 121:       if((1 == PIE1bits.TMR2IE )&&(
      +                          1 == PIR1bits.TMR2IF ))
  4836   0017D2  A29D               	btfss	157,1,c	;volatile
  4837   0017D4  EFEE  F00B         	goto	i2u774_41
  4838   0017D8  EFF0  F00B         	goto	i2u774_40
  4839   0017DC                     i2u774_41:
  4840   0017DC  EFF9  F00B         	goto	i2l944
  4841   0017E0                     i2u774_40:
  4842   0017E0  A29E               	btfss	158,1,c	;volatile
  4843   0017E2  EFF5  F00B         	goto	i2u775_41
  4844   0017E6  EFF7  F00B         	goto	i2u775_40
  4845   0017EA                     i2u775_41:
  4846   0017EA  EFF9  F00B         	goto	i2l944
  4847   0017EE                     i2u775_40:
  4848   0017EE                     
  4849                           ;MCAL_layer/Interrupt/mcal_interrupt_manager.c: 122:     {;MCAL_layer/Interrupt/mcal_int
      +                          errupt_manager.c: 123:         TM2_ISR();
  4850   0017EE  EC33  F017         	call	_TM2_ISR	;wreg free
  4851   0017F2                     i2l944:
  4852                           
  4853                           ;MCAL_layer/Interrupt/mcal_interrupt_manager.c: 126:        if((1 == PIE2bits.TMR3IE )&&
      +                          (1 == PIR2bits.TMR3IF ))
  4854   0017F2  A2A0               	btfss	160,1,c	;volatile
  4855   0017F4  EFFE  F00B         	goto	i2u776_41
  4856   0017F8  EF00  F00C         	goto	i2u776_40
  4857   0017FC                     i2u776_41:
  4858   0017FC  EF09  F00C         	goto	i2l946
  4859   001800                     i2u776_40:
  4860   001800  A2A1               	btfss	161,1,c	;volatile
  4861   001802  EF05  F00C         	goto	i2u777_41
  4862   001806  EF07  F00C         	goto	i2u777_40
  4863   00180A                     i2u777_41:
  4864   00180A  EF09  F00C         	goto	i2l946
  4865   00180E                     i2u777_40:
  4866   00180E                     
  4867                           ;MCAL_layer/Interrupt/mcal_interrupt_manager.c: 127:     {;MCAL_layer/Interrupt/mcal_int
      +                          errupt_manager.c: 128:         TM3_ISR();
  4868   00180E  ECAD  F017         	call	_TM3_ISR	;wreg free
  4869   001812                     i2l946:
  4870                           
  4871                           ;MCAL_layer/Interrupt/mcal_interrupt_manager.c: 131:         if((1 == PIE1bits.CCP1IE )&
      +                          &(1 == PIR1bits.CCP1IF ))
  4872   001812  A49D               	btfss	157,2,c	;volatile
  4873   001814  EF0E  F00C         	goto	i2u778_41
  4874   001818  EF10  F00C         	goto	i2u778_40
  4875   00181C                     i2u778_41:
  4876   00181C  EF19  F00C         	goto	i2l948
  4877   001820                     i2u778_40:
  4878   001820  A49E               	btfss	158,2,c	;volatile
  4879   001822  EF15  F00C         	goto	i2u779_41
  4880   001826  EF17  F00C         	goto	i2u779_40
  4881   00182A                     i2u779_41:
  4882   00182A  EF19  F00C         	goto	i2l948
  4883   00182E                     i2u779_40:
  4884   00182E                     
  4885                           ;MCAL_layer/Interrupt/mcal_interrupt_manager.c: 132:     {;MCAL_layer/Interrupt/mcal_int
      +                          errupt_manager.c: 133:         CCP1_ISR();
  4886   00182E  EC95  F017         	call	_CCP1_ISR	;wreg free
  4887   001832                     i2l948:
  4888                           
  4889                           ;MCAL_layer/Interrupt/mcal_interrupt_manager.c: 136:         if((1 == PIE2bits.CCP2IE )&
      +                          &(1 == PIR2bits.CCP2IF ))
  4890   001832  A0A0               	btfss	160,0,c	;volatile
  4891   001834  EF1E  F00C         	goto	i2u780_41
  4892   001838  EF20  F00C         	goto	i2u780_40
  4893   00183C                     i2u780_41:
  4894   00183C  EF29  F00C         	goto	i2l950
  4895   001840                     i2u780_40:
  4896   001840  A0A1               	btfss	161,0,c	;volatile
  4897   001842  EF25  F00C         	goto	i2u781_41
  4898   001846  EF27  F00C         	goto	i2u781_40
  4899   00184A                     i2u781_41:
  4900   00184A  EF29  F00C         	goto	i2l950
  4901   00184E                     i2u781_40:
  4902   00184E                     
  4903                           ;MCAL_layer/Interrupt/mcal_interrupt_manager.c: 137:     {;MCAL_layer/Interrupt/mcal_int
      +                          errupt_manager.c: 138:         CCP2_ISR();
  4904   00184E  EC19  F018         	call	_CCP2_ISR	;wreg free
  4905   001852                     i2l950:
  4906                           
  4907                           ;MCAL_layer/Interrupt/mcal_interrupt_manager.c: 141:         if((1 == PIE1bits.RCIE )&&(
      +                          1 == PIR1bits.RCIF ))
  4908   001852  AA9D               	btfss	157,5,c	;volatile
  4909   001854  EF2E  F00C         	goto	i2u782_41
  4910   001858  EF30  F00C         	goto	i2u782_40
  4911   00185C                     i2u782_41:
  4912   00185C  EF39  F00C         	goto	i2l952
  4913   001860                     i2u782_40:
  4914   001860  AA9E               	btfss	158,5,c	;volatile
  4915   001862  EF35  F00C         	goto	i2u783_41
  4916   001866  EF37  F00C         	goto	i2u783_40
  4917   00186A                     i2u783_41:
  4918   00186A  EF39  F00C         	goto	i2l952
  4919   00186E                     i2u783_40:
  4920   00186E                     
  4921                           ;MCAL_layer/Interrupt/mcal_interrupt_manager.c: 142:     {;MCAL_layer/Interrupt/mcal_int
      +                          errupt_manager.c: 143:         USART_RX_ISR();
  4922   00186E  EC12  F018         	call	_USART_RX_ISR	;wreg free
  4923   001872                     i2l952:
  4924                           
  4925                           ;MCAL_layer/Interrupt/mcal_interrupt_manager.c: 146:     if((1 == PIE1bits.TXIE )&&(1 ==
      +                           PIR1bits.TXIF))
  4926   001872  A89D               	btfss	157,4,c	;volatile
  4927   001874  EF3E  F00C         	goto	i2u784_41
  4928   001878  EF40  F00C         	goto	i2u784_40
  4929   00187C                     i2u784_41:
  4930   00187C  EF49  F00C         	goto	i2l954
  4931   001880                     i2u784_40:
  4932   001880  A89E               	btfss	158,4,c	;volatile
  4933   001882  EF45  F00C         	goto	i2u785_41
  4934   001886  EF47  F00C         	goto	i2u785_40
  4935   00188A                     i2u785_41:
  4936   00188A  EF49  F00C         	goto	i2l954
  4937   00188E                     i2u785_40:
  4938   00188E                     
  4939                           ;MCAL_layer/Interrupt/mcal_interrupt_manager.c: 147:     {;MCAL_layer/Interrupt/mcal_int
      +                          errupt_manager.c: 148:         USART_TX_ISR();
  4940   00188E  EC15  F018         	call	_USART_TX_ISR	;wreg free
  4941   001892                     i2l954:
  4942                           
  4943                           ;MCAL_layer/Interrupt/mcal_interrupt_manager.c: 152:     if((1 == PIE1bits.SSPIE )&&(1 =
      +                          = PIR1bits.SSPIF))
  4944   001892  A69D               	btfss	157,3,c	;volatile
  4945   001894  EF4E  F00C         	goto	i2u786_41
  4946   001898  EF50  F00C         	goto	i2u786_40
  4947   00189C                     i2u786_41:
  4948   00189C  EF59  F00C         	goto	i2l956
  4949   0018A0                     i2u786_40:
  4950   0018A0  A69E               	btfss	158,3,c	;volatile
  4951   0018A2  EF55  F00C         	goto	i2u787_41
  4952   0018A6  EF57  F00C         	goto	i2u787_40
  4953   0018AA                     i2u787_41:
  4954   0018AA  EF59  F00C         	goto	i2l956
  4955   0018AE                     i2u787_40:
  4956   0018AE                     
  4957                           ;MCAL_layer/Interrupt/mcal_interrupt_manager.c: 153:     {;MCAL_layer/Interrupt/mcal_int
      +                          errupt_manager.c: 154:         MSSP_I2C_ISR();
  4958   0018AE  EC4D  F017         	call	_MSSP_I2C_ISR	;wreg free
  4959   0018B2                     i2l956:
  4960                           
  4961                           ;MCAL_layer/Interrupt/mcal_interrupt_manager.c: 157:     if((1 == PIE2bits.BCLIE )&&(1 =
      +                          = PIR2bits.BCLIF))
  4962   0018B2  A6A0               	btfss	160,3,c	;volatile
  4963   0018B4  EF5E  F00C         	goto	i2u788_41
  4964   0018B8  EF60  F00C         	goto	i2u788_40
  4965   0018BC                     i2u788_41:
  4966   0018BC  EF69  F00C         	goto	i2l959
  4967   0018C0                     i2u788_40:
  4968   0018C0  A6A1               	btfss	161,3,c	;volatile
  4969   0018C2  EF65  F00C         	goto	i2u789_41
  4970   0018C6  EF67  F00C         	goto	i2u789_40
  4971   0018CA                     i2u789_41:
  4972   0018CA  EF69  F00C         	goto	i2l959
  4973   0018CE                     i2u789_40:
  4974   0018CE                     
  4975                           ;MCAL_layer/Interrupt/mcal_interrupt_manager.c: 158:     {;MCAL_layer/Interrupt/mcal_int
      +                          errupt_manager.c: 159:         MSSP_I2C_BUSC_ISR();
  4976   0018CE  EC17  F018         	call	_MSSP_I2C_BUSC_ISR	;wreg free
  4977   0018D2                     i2l959:
  4978   0018D2  C015  FFF4         	movff	??_interruptManger+5,prodh
  4979   0018D6  C014  FFF3         	movff	??_interruptManger+4,prodl
  4980   0018DA  C013  FFDA         	movff	??_interruptManger+3,fsr2h
  4981   0018DE  C012  FFD9         	movff	??_interruptManger+2,fsr2l
  4982   0018E2  C011  FFFB         	movff	??_interruptManger+1,pclatu
  4983   0018E6  C010  FFFA         	movff	??_interruptManger,pclath
  4984   0018EA  926A               	bcf	int$flags,1,c	;clear compiler interrupt flag (level 2)
  4985   0018EC  0011               	retfie		f
  4986   0018EE                     __end_of_interruptManger:
  4987                           	callstack 0
  4988                           
  4989 ;; *************** function _USART_TX_ISR *****************
  4990 ;; Defined at:
  4991 ;;		line 257 in file "MCAL_layer/USART/hal_usart.c"
  4992 ;; Parameters:    Size  Location     Type
  4993 ;;		None
  4994 ;; Auto vars:     Size  Location     Type
  4995 ;;		None
  4996 ;; Return value:  Size  Location     Type
  4997 ;;                  1    wreg      void 
  4998 ;; Registers used:
  4999 ;;		None
  5000 ;; Tracked objects:
  5001 ;;		On entry : 0/0
  5002 ;;		On exit  : 0/0
  5003 ;;		Unchanged: 0/0
  5004 ;; Data sizes:     COMRAM   BANK0   BANK1   BANK2   BANK3   BANK4   BANK5   BANK6   BANK7   BANK8   BANK9  BANK10  BANK1
      +1  BANK12  BANK13  BANK14  BANK15
  5005 ;;      Params:         0       0       0       0       0       0       0       0       0       0       0       0       
      +0       0       0       0       0
  5006 ;;      Locals:         0       0       0       0       0       0       0       0       0       0       0       0       
      +0       0       0       0       0
  5007 ;;      Temps:          0       0       0       0       0       0       0       0       0       0       0       0       
      +0       0       0       0       0
  5008 ;;      Totals:         0       0       0       0       0       0       0       0       0       0       0       0       
      +0       0       0       0       0
  5009 ;;Total ram usage:        0 bytes
  5010 ;; Hardware stack levels used: 1
  5011 ;; This function calls:
  5012 ;;		Nothing
  5013 ;; This function is called by:
  5014 ;;		_interruptManger
  5015 ;; This function uses a non-reentrant model
  5016 ;;
  5017                           
  5018                           	psect	text14
  5019   00302A                     __ptext14:
  5020                           	callstack 0
  5021   00302A                     _USART_TX_ISR:
  5022                           	callstack 26
  5023   00302A                     
  5024                           ;MCAL_layer/USART/hal_usart.c: 258:     (PIE1bits.TXIE = 0);
  5025   00302A  989D               	bcf	157,4,c	;volatile
  5026   00302C  0012               	return		;funcret
  5027   00302E                     __end_of_USART_TX_ISR:
  5028                           	callstack 0
  5029                           
  5030 ;; *************** function _USART_RX_ISR *****************
  5031 ;; Defined at:
  5032 ;;		line 237 in file "MCAL_layer/USART/hal_usart.c"
  5033 ;; Parameters:    Size  Location     Type
  5034 ;;		None
  5035 ;; Auto vars:     Size  Location     Type
  5036 ;;		None
  5037 ;; Return value:  Size  Location     Type
  5038 ;;                  1    wreg      void 
  5039 ;; Registers used:
  5040 ;;		None
  5041 ;; Tracked objects:
  5042 ;;		On entry : 0/0
  5043 ;;		On exit  : 0/0
  5044 ;;		Unchanged: 0/0
  5045 ;; Data sizes:     COMRAM   BANK0   BANK1   BANK2   BANK3   BANK4   BANK5   BANK6   BANK7   BANK8   BANK9  BANK10  BANK1
      +1  BANK12  BANK13  BANK14  BANK15
  5046 ;;      Params:         0       0       0       0       0       0       0       0       0       0       0       0       
      +0       0       0       0       0
  5047 ;;      Locals:         0       0       0       0       0       0       0       0       0       0       0       0       
      +0       0       0       0       0
  5048 ;;      Temps:          0       0       0       0       0       0       0       0       0       0       0       0       
      +0       0       0       0       0
  5049 ;;      Totals:         0       0       0       0       0       0       0       0       0       0       0       0       
      +0       0       0       0       0
  5050 ;;Total ram usage:        0 bytes
  5051 ;; Hardware stack levels used: 1
  5052 ;; This function calls:
  5053 ;;		Nothing
  5054 ;; This function is called by:
  5055 ;;		_interruptManger
  5056 ;; This function uses a non-reentrant model
  5057 ;;
  5058                           
  5059                           	psect	text15
  5060   003024                     __ptext15:
  5061                           	callstack 0
  5062   003024                     _USART_RX_ISR:
  5063                           	callstack 26
  5064   003024                     
  5065                           ;MCAL_layer/USART/hal_usart.c: 238:     PIR1bits.RCIF = 1 ;
  5066   003024  8A9E               	bsf	158,5,c	;volatile
  5067   003026                     
  5068                           ;MCAL_layer/USART/hal_usart.c: 244:     PIR1bits.RCIF = 0;
  5069   003026  9A9E               	bcf	158,5,c	;volatile
  5070   003028  0012               	return		;funcret
  5071   00302A                     __end_of_USART_RX_ISR:
  5072                           	callstack 0
  5073                           
  5074 ;; *************** function _TM3_ISR *****************
  5075 ;; Defined at:
  5076 ;;		line 15 in file "MCAL_layer/Timer3/hal_timer3.c"
  5077 ;; Parameters:    Size  Location     Type
  5078 ;;		None
  5079 ;; Auto vars:     Size  Location     Type
  5080 ;;		None
  5081 ;; Return value:  Size  Location     Type
  5082 ;;                  1    wreg      void 
  5083 ;; Registers used:
  5084 ;;		wreg, status,2, status,0, pcl, pclath, pclatu, tosl, cstack
  5085 ;; Tracked objects:
  5086 ;;		On entry : 0/0
  5087 ;;		On exit  : 0/0
  5088 ;;		Unchanged: 0/0
  5089 ;; Data sizes:     COMRAM   BANK0   BANK1   BANK2   BANK3   BANK4   BANK5   BANK6   BANK7   BANK8   BANK9  BANK10  BANK1
      +1  BANK12  BANK13  BANK14  BANK15
  5090 ;;      Params:         0       0       0       0       0       0       0       0       0       0       0       0       
      +0       0       0       0       0
  5091 ;;      Locals:         0       0       0       0       0       0       0       0       0       0       0       0       
      +0       0       0       0       0
  5092 ;;      Temps:          0       0       0       0       0       0       0       0       0       0       0       0       
      +0       0       0       0       0
  5093 ;;      Totals:         0       0       0       0       0       0       0       0       0       0       0       0       
      +0       0       0       0       0
  5094 ;;Total ram usage:        0 bytes
  5095 ;; Hardware stack levels used: 1
  5096 ;; Hardware stack levels required when called: 1
  5097 ;; This function calls:
  5098 ;;		NULL
  5099 ;;		_Timer3_Interrupt_capture
  5100 ;; This function is called by:
  5101 ;;		_interruptManger
  5102 ;; This function uses a non-reentrant model
  5103 ;;
  5104                           
  5105                           	psect	text16
  5106   002F5A                     __ptext16:
  5107                           	callstack 0
  5108   002F5A                     _TM3_ISR:
  5109                           	callstack 25
  5110   002F5A                     
  5111                           ;MCAL_layer/Timer3/hal_timer3.c: 18:     if(TM3_InterruptHandler)
  5112   002F5A  0100               	movlb	0	; () banked
  5113   002F5C  519C               	movf	_TM3_InterruptHandler& (0+255),w,b
  5114   002F5E  119D               	iorwf	(_TM3_InterruptHandler+1)& (0+255),w,b
  5115   002F60  B4D8               	btfsc	status,2,c
  5116   002F62  EFB5  F017         	goto	i2u628_41
  5117   002F66  EFB7  F017         	goto	i2u628_40
  5118   002F6A                     i2u628_41:
  5119   002F6A  EFC3  F017         	goto	i2l1347
  5120   002F6E                     i2u628_40:
  5121   002F6E                     
  5122                           ; BSR set to: 0
  5123                           ;MCAL_layer/Timer3/hal_timer3.c: 19:     {;MCAL_layer/Timer3/hal_timer3.c: 20:         T
      +                          M3_InterruptHandler();
  5124   002F6E  D802               	call	i2u629_48
  5125   002F70  EFC3  F017         	goto	i2u629_49
  5126   002F74                     i2u629_48:
  5127   002F74  0005               	push	
  5128   002F76  6EFA               	movwf	pclath,c
  5129   002F78  519C               	movf	_TM3_InterruptHandler& (0+255),w,b
  5130   002F7A  6EFD               	movwf	tosl,c
  5131   002F7C  519D               	movf	(_TM3_InterruptHandler+1)& (0+255),w,b
  5132   002F7E  6EFE               	movwf	tosh,c
  5133   002F80  6AFF               	clrf	tosu,c
  5134   002F82  50FA               	movf	pclath,w,c
  5135   002F84  0012               	return		;indir
  5136   002F86                     i2u629_49:
  5137   002F86                     i2l1347:
  5138   002F86  0012               	return		;funcret
  5139   002F88                     __end_of_TM3_ISR:
  5140                           	callstack 0
  5141                           
  5142 ;; *************** function _TM2_ISR *****************
  5143 ;; Defined at:
  5144 ;;		line 95 in file "MCAL_layer/Timer2/hal_timer2.c"
  5145 ;; Parameters:    Size  Location     Type
  5146 ;;		None
  5147 ;; Auto vars:     Size  Location     Type
  5148 ;;		None
  5149 ;; Return value:  Size  Location     Type
  5150 ;;                  1    wreg      void 
  5151 ;; Registers used:
  5152 ;;		wreg, status,2, status,0, pcl, pclath, pclatu, tosl, cstack
  5153 ;; Tracked objects:
  5154 ;;		On entry : 0/0
  5155 ;;		On exit  : 0/0
  5156 ;;		Unchanged: 0/0
  5157 ;; Data sizes:     COMRAM   BANK0   BANK1   BANK2   BANK3   BANK4   BANK5   BANK6   BANK7   BANK8   BANK9  BANK10  BANK1
      +1  BANK12  BANK13  BANK14  BANK15
  5158 ;;      Params:         0       0       0       0       0       0       0       0       0       0       0       0       
      +0       0       0       0       0
  5159 ;;      Locals:         0       0       0       0       0       0       0       0       0       0       0       0       
      +0       0       0       0       0
  5160 ;;      Temps:          0       0       0       0       0       0       0       0       0       0       0       0       
      +0       0       0       0       0
  5161 ;;      Totals:         0       0       0       0       0       0       0       0       0       0       0       0       
      +0       0       0       0       0
  5162 ;;Total ram usage:        0 bytes
  5163 ;; Hardware stack levels used: 1
  5164 ;; Hardware stack levels required when called: 1
  5165 ;; This function calls:
  5166 ;;		NULL
  5167 ;;		_timer2_ISR
  5168 ;; This function is called by:
  5169 ;;		_interruptManger
  5170 ;; This function uses a non-reentrant model
  5171 ;;
  5172                           
  5173                           	psect	text17
  5174   002E66                     __ptext17:
  5175                           	callstack 0
  5176   002E66                     _TM2_ISR:
  5177                           	callstack 25
  5178   002E66                     
  5179                           ;MCAL_layer/Timer2/hal_timer2.c: 96:      (PIR1bits.TMR2IF = 0);
  5180   002E66  929E               	bcf	158,1,c	;volatile
  5181                           
  5182                           ;MCAL_layer/Timer2/hal_timer2.c: 97:      TMR2 = timer2_preload ;
  5183   002E68  C09E  FFCC         	movff	_timer2_preload,4044	;volatile
  5184   002E6C                     
  5185                           ;MCAL_layer/Timer2/hal_timer2.c: 99:     if(TM2_InterruptHandler)
  5186   002E6C  0100               	movlb	0	; () banked
  5187   002E6E  51A0               	movf	_TM2_InterruptHandler& (0+255),w,b
  5188   002E70  11A1               	iorwf	(_TM2_InterruptHandler+1)& (0+255),w,b
  5189   002E72  B4D8               	btfsc	status,2,c
  5190   002E74  EF3E  F017         	goto	i2u626_41
  5191   002E78  EF40  F017         	goto	i2u626_40
  5192   002E7C                     i2u626_41:
  5193   002E7C  EF4C  F017         	goto	i2l1325
  5194   002E80                     i2u626_40:
  5195   002E80                     
  5196                           ; BSR set to: 0
  5197                           ;MCAL_layer/Timer2/hal_timer2.c: 100:     {;MCAL_layer/Timer2/hal_timer2.c: 101:        
      +                           TM2_InterruptHandler();
  5198   002E80  D802               	call	i2u627_48
  5199   002E82  EF4C  F017         	goto	i2u627_49
  5200   002E86                     i2u627_48:
  5201   002E86  0005               	push	
  5202   002E88  6EFA               	movwf	pclath,c
  5203   002E8A  51A0               	movf	_TM2_InterruptHandler& (0+255),w,b
  5204   002E8C  6EFD               	movwf	tosl,c
  5205   002E8E  51A1               	movf	(_TM2_InterruptHandler+1)& (0+255),w,b
  5206   002E90  6EFE               	movwf	tosh,c
  5207   002E92  6AFF               	clrf	tosu,c
  5208   002E94  50FA               	movf	pclath,w,c
  5209   002E96  0012               	return		;indir
  5210   002E98                     i2u627_49:
  5211   002E98                     i2l1325:
  5212   002E98  0012               	return		;funcret
  5213   002E9A                     __end_of_TM2_ISR:
  5214                           	callstack 0
  5215                           
  5216 ;; *************** function _timer2_ISR *****************
  5217 ;; Defined at:
  5218 ;;		line 442 in file "Embe_Initialization.c"
  5219 ;; Parameters:    Size  Location     Type
  5220 ;;		None
  5221 ;; Auto vars:     Size  Location     Type
  5222 ;;		None
  5223 ;; Return value:  Size  Location     Type
  5224 ;;                  1    wreg      void 
  5225 ;; Registers used:
  5226 ;;		status,2, status,0
  5227 ;; Tracked objects:
  5228 ;;		On entry : 0/0
  5229 ;;		On exit  : 0/0
  5230 ;;		Unchanged: 0/0
  5231 ;; Data sizes:     COMRAM   BANK0   BANK1   BANK2   BANK3   BANK4   BANK5   BANK6   BANK7   BANK8   BANK9  BANK10  BANK1
      +1  BANK12  BANK13  BANK14  BANK15
  5232 ;;      Params:         0       0       0       0       0       0       0       0       0       0       0       0       
      +0       0       0       0       0
  5233 ;;      Locals:         0       0       0       0       0       0       0       0       0       0       0       0       
      +0       0       0       0       0
  5234 ;;      Temps:          0       0       0       0       0       0       0       0       0       0       0       0       
      +0       0       0       0       0
  5235 ;;      Totals:         0       0       0       0       0       0       0       0       0       0       0       0       
      +0       0       0       0       0
  5236 ;;Total ram usage:        0 bytes
  5237 ;; Hardware stack levels used: 1
  5238 ;; This function calls:
  5239 ;;		Nothing
  5240 ;; This function is called by:
  5241 ;;		_timer1_Counter_Init
  5242 ;;		_TM2_ISR
  5243 ;; This function uses a non-reentrant model
  5244 ;;
  5245                           
  5246                           	psect	text18
  5247   00300C                     __ptext18:
  5248                           	callstack 0
  5249   00300C                     _timer2_ISR:
  5250                           	callstack 25
  5251   00300C                     
  5252                           ;Embe_Initialization.c: 443:         timer2_on ++;
  5253   00300C  0100               	movlb	0	; () banked
  5254   00300E  4B88               	infsnz	_timer2_on& (0+255),f,b	;volatile
  5255   003010  2B89               	incf	(_timer2_on+1)& (0+255),f,b	;volatile
  5256   003012                     
  5257                           ; BSR set to: 0
  5258   003012  0012               	return		;funcret
  5259   003014                     __end_of_timer2_ISR:
  5260                           	callstack 0
  5261                           
  5262 ;; *************** function _TM1_ISR *****************
  5263 ;; Defined at:
  5264 ;;		line 129 in file "MCAL_layer/Timer1/hal_timer1.c"
  5265 ;; Parameters:    Size  Location     Type
  5266 ;;		None
  5267 ;; Auto vars:     Size  Location     Type
  5268 ;;		None
  5269 ;; Return value:  Size  Location     Type
  5270 ;;                  1    wreg      void 
  5271 ;; Registers used:
  5272 ;;		wreg, status,2, status,0, pcl, pclath, pclatu, tosl, cstack
  5273 ;; Tracked objects:
  5274 ;;		On entry : 0/0
  5275 ;;		On exit  : 0/0
  5276 ;;		Unchanged: 0/0
  5277 ;; Data sizes:     COMRAM   BANK0   BANK1   BANK2   BANK3   BANK4   BANK5   BANK6   BANK7   BANK8   BANK9  BANK10  BANK1
      +1  BANK12  BANK13  BANK14  BANK15
  5278 ;;      Params:         0       0       0       0       0       0       0       0       0       0       0       0       
      +0       0       0       0       0
  5279 ;;      Locals:         0       0       0       0       0       0       0       0       0       0       0       0       
      +0       0       0       0       0
  5280 ;;      Temps:          0       0       0       0       0       0       0       0       0       0       0       0       
      +0       0       0       0       0
  5281 ;;      Totals:         0       0       0       0       0       0       0       0       0       0       0       0       
      +0       0       0       0       0
  5282 ;;Total ram usage:        0 bytes
  5283 ;; Hardware stack levels used: 1
  5284 ;; Hardware stack levels required when called: 1
  5285 ;; This function calls:
  5286 ;;		NULL
  5287 ;;		_Timer1_Default
  5288 ;; This function is called by:
  5289 ;;		_interruptManger
  5290 ;; This function uses a non-reentrant model
  5291 ;;
  5292                           
  5293                           	psect	text19
  5294   002DF6                     __ptext19:
  5295                           	callstack 0
  5296   002DF6                     _TM1_ISR:
  5297                           	callstack 25
  5298   002DF6                     
  5299                           ;MCAL_layer/Timer1/hal_timer1.c: 130:      (PIR1bits.TMR1IF = 0);
  5300   002DF6  909E               	bcf	158,0,c	;volatile
  5301   002DF8                     
  5302                           ;MCAL_layer/Timer1/hal_timer1.c: 131:     TMR1H = (timer1_preload)>> 8 ;
  5303   002DF8  0100               	movlb	0	; () banked
  5304   002DFA  51A3               	movf	(_timer1_preload+1)& (0+255),w,b
  5305   002DFC  6ECF               	movwf	207,c	;volatile
  5306   002DFE                     
  5307                           ; BSR set to: 0
  5308                           ;MCAL_layer/Timer1/hal_timer1.c: 132:     TMR1L = (uint8)(timer1_preload);
  5309   002DFE  C0A2  FFCE         	movff	_timer1_preload,4046	;volatile
  5310   002E02                     
  5311                           ; BSR set to: 0
  5312                           ;MCAL_layer/Timer1/hal_timer1.c: 134:     if(TM1_InterruptHandler)
  5313   002E02  51A4               	movf	_TM1_InterruptHandler& (0+255),w,b
  5314   002E04  11A5               	iorwf	(_TM1_InterruptHandler+1)& (0+255),w,b
  5315   002E06  B4D8               	btfsc	status,2,c
  5316   002E08  EF08  F017         	goto	i2u624_41
  5317   002E0C  EF0A  F017         	goto	i2u624_40
  5318   002E10                     i2u624_41:
  5319   002E10  EF16  F017         	goto	i2l1285
  5320   002E14                     i2u624_40:
  5321   002E14                     
  5322                           ; BSR set to: 0
  5323                           ;MCAL_layer/Timer1/hal_timer1.c: 135:     {;MCAL_layer/Timer1/hal_timer1.c: 136:        
      +                           TM1_InterruptHandler();
  5324   002E14  D802               	call	i2u625_48
  5325   002E16  EF16  F017         	goto	i2u625_49
  5326   002E1A                     i2u625_48:
  5327   002E1A  0005               	push	
  5328   002E1C  6EFA               	movwf	pclath,c
  5329   002E1E  51A4               	movf	_TM1_InterruptHandler& (0+255),w,b
  5330   002E20  6EFD               	movwf	tosl,c
  5331   002E22  51A5               	movf	(_TM1_InterruptHandler+1)& (0+255),w,b
  5332   002E24  6EFE               	movwf	tosh,c
  5333   002E26  6AFF               	clrf	tosu,c
  5334   002E28  50FA               	movf	pclath,w,c
  5335   002E2A  0012               	return		;indir
  5336   002E2C                     i2u625_49:
  5337   002E2C                     i2l1285:
  5338   002E2C  0012               	return		;funcret
  5339   002E2E                     __end_of_TM1_ISR:
  5340                           	callstack 0
  5341                           
  5342 ;; *************** function _Timer1_Default *****************
  5343 ;; Defined at:
  5344 ;;		line 445 in file "Embe_Initialization.c"
  5345 ;; Parameters:    Size  Location     Type
  5346 ;;		None
  5347 ;; Auto vars:     Size  Location     Type
  5348 ;;		None
  5349 ;; Return value:  Size  Location     Type
  5350 ;;                  1    wreg      void 
  5351 ;; Registers used:
  5352 ;;		status,2, status,0
  5353 ;; Tracked objects:
  5354 ;;		On entry : 0/0
  5355 ;;		On exit  : 0/0
  5356 ;;		Unchanged: 0/0
  5357 ;; Data sizes:     COMRAM   BANK0   BANK1   BANK2   BANK3   BANK4   BANK5   BANK6   BANK7   BANK8   BANK9  BANK10  BANK1
      +1  BANK12  BANK13  BANK14  BANK15
  5358 ;;      Params:         0       0       0       0       0       0       0       0       0       0       0       0       
      +0       0       0       0       0
  5359 ;;      Locals:         0       0       0       0       0       0       0       0       0       0       0       0       
      +0       0       0       0       0
  5360 ;;      Temps:          0       0       0       0       0       0       0       0       0       0       0       0       
      +0       0       0       0       0
  5361 ;;      Totals:         0       0       0       0       0       0       0       0       0       0       0       0       
      +0       0       0       0       0
  5362 ;;Total ram usage:        0 bytes
  5363 ;; Hardware stack levels used: 1
  5364 ;; This function calls:
  5365 ;;		Nothing
  5366 ;; This function is called by:
  5367 ;;		_timer1_Init
  5368 ;;		_TM1_ISR
  5369 ;; This function uses a non-reentrant model
  5370 ;;
  5371                           
  5372                           	psect	text20
  5373   003014                     __ptext20:
  5374                           	callstack 0
  5375   003014                     _Timer1_Default:
  5376                           	callstack 25
  5377   003014                     
  5378                           ;Embe_Initialization.c: 447:     timer1_on ++ ;
  5379   003014  0100               	movlb	0	; () banked
  5380   003016  4B8A               	infsnz	_timer1_on& (0+255),f,b	;volatile
  5381   003018  2B8B               	incf	(_timer1_on+1)& (0+255),f,b	;volatile
  5382   00301A                     
  5383                           ; BSR set to: 0
  5384   00301A  0012               	return		;funcret
  5385   00301C                     __end_of_Timer1_Default:
  5386                           	callstack 0
  5387                           
  5388 ;; *************** function _TM0_ISR *****************
  5389 ;; Defined at:
  5390 ;;		line 110 in file "MCAL_layer/Timer0/hal_timer0.c"
  5391 ;; Parameters:    Size  Location     Type
  5392 ;;		None
  5393 ;; Auto vars:     Size  Location     Type
  5394 ;;		None
  5395 ;; Return value:  Size  Location     Type
  5396 ;;                  1    wreg      void 
  5397 ;; Registers used:
  5398 ;;		wreg, status,2, status,0, pcl, pclath, pclatu, tosl, cstack
  5399 ;; Tracked objects:
  5400 ;;		On entry : 0/0
  5401 ;;		On exit  : 0/0
  5402 ;;		Unchanged: 0/0
  5403 ;; Data sizes:     COMRAM   BANK0   BANK1   BANK2   BANK3   BANK4   BANK5   BANK6   BANK7   BANK8   BANK9  BANK10  BANK1
      +1  BANK12  BANK13  BANK14  BANK15
  5404 ;;      Params:         0       0       0       0       0       0       0       0       0       0       0       0       
      +0       0       0       0       0
  5405 ;;      Locals:         0       0       0       0       0       0       0       0       0       0       0       0       
      +0       0       0       0       0
  5406 ;;      Temps:          0       0       0       0       0       0       0       0       0       0       0       0       
      +0       0       0       0       0
  5407 ;;      Totals:         0       0       0       0       0       0       0       0       0       0       0       0       
      +0       0       0       0       0
  5408 ;;Total ram usage:        0 bytes
  5409 ;; Hardware stack levels used: 1
  5410 ;; Hardware stack levels required when called: 1
  5411 ;; This function calls:
  5412 ;;		NULL
  5413 ;;		_timer_ISR
  5414 ;; This function is called by:
  5415 ;;		_interruptManger
  5416 ;; This function uses a non-reentrant model
  5417 ;;
  5418                           
  5419                           	psect	text21
  5420   002E2E                     __ptext21:
  5421                           	callstack 0
  5422   002E2E                     _TM0_ISR:
  5423                           	callstack 25
  5424   002E2E                     
  5425                           ;MCAL_layer/Timer0/hal_timer0.c: 111:      (INTCONbits.TMR0IF= 0);
  5426   002E2E  94F2               	bcf	242,2,c	;volatile
  5427   002E30                     
  5428                           ;MCAL_layer/Timer0/hal_timer0.c: 112:     TMR0H = (timer0_preload)>> 8 ;
  5429   002E30  0100               	movlb	0	; () banked
  5430   002E32  51A7               	movf	(_timer0_preload+1)& (0+255),w,b
  5431   002E34  6ED7               	movwf	215,c	;volatile
  5432   002E36                     
  5433                           ; BSR set to: 0
  5434                           ;MCAL_layer/Timer0/hal_timer0.c: 113:     TMR0L = (uint8)(timer0_preload);
  5435   002E36  C0A6  FFD6         	movff	_timer0_preload,4054	;volatile
  5436   002E3A                     
  5437                           ; BSR set to: 0
  5438                           ;MCAL_layer/Timer0/hal_timer0.c: 115:     if(TM0_InterruptHandler)
  5439   002E3A  51A8               	movf	_TM0_InterruptHandler& (0+255),w,b
  5440   002E3C  11A9               	iorwf	(_TM0_InterruptHandler+1)& (0+255),w,b
  5441   002E3E  B4D8               	btfsc	status,2,c
  5442   002E40  EF24  F017         	goto	i2u622_41
  5443   002E44  EF26  F017         	goto	i2u622_40
  5444   002E48                     i2u622_41:
  5445   002E48  EF32  F017         	goto	i2l1207
  5446   002E4C                     i2u622_40:
  5447   002E4C                     
  5448                           ; BSR set to: 0
  5449                           ;MCAL_layer/Timer0/hal_timer0.c: 116:     {;MCAL_layer/Timer0/hal_timer0.c: 117:        
      +                           TM0_InterruptHandler();
  5450   002E4C  D802               	call	i2u623_48
  5451   002E4E  EF32  F017         	goto	i2u623_49
  5452   002E52                     i2u623_48:
  5453   002E52  0005               	push	
  5454   002E54  6EFA               	movwf	pclath,c
  5455   002E56  51A8               	movf	_TM0_InterruptHandler& (0+255),w,b
  5456   002E58  6EFD               	movwf	tosl,c
  5457   002E5A  51A9               	movf	(_TM0_InterruptHandler+1)& (0+255),w,b
  5458   002E5C  6EFE               	movwf	tosh,c
  5459   002E5E  6AFF               	clrf	tosu,c
  5460   002E60  50FA               	movf	pclath,w,c
  5461   002E62  0012               	return		;indir
  5462   002E64                     i2u623_49:
  5463   002E64                     i2l1207:
  5464   002E64  0012               	return		;funcret
  5465   002E66                     __end_of_TM0_ISR:
  5466                           	callstack 0
  5467                           
  5468 ;; *************** function _timer_ISR *****************
  5469 ;; Defined at:
  5470 ;;		line 438 in file "Embe_Initialization.c"
  5471 ;; Parameters:    Size  Location     Type
  5472 ;;		None
  5473 ;; Auto vars:     Size  Location     Type
  5474 ;;		None
  5475 ;; Return value:  Size  Location     Type
  5476 ;;                  1    wreg      void 
  5477 ;; Registers used:
  5478 ;;		None
  5479 ;; Tracked objects:
  5480 ;;		On entry : 0/0
  5481 ;;		On exit  : 0/0
  5482 ;;		Unchanged: 0/0
  5483 ;; Data sizes:     COMRAM   BANK0   BANK1   BANK2   BANK3   BANK4   BANK5   BANK6   BANK7   BANK8   BANK9  BANK10  BANK1
      +1  BANK12  BANK13  BANK14  BANK15
  5484 ;;      Params:         0       0       0       0       0       0       0       0       0       0       0       0       
      +0       0       0       0       0
  5485 ;;      Locals:         0       0       0       0       0       0       0       0       0       0       0       0       
      +0       0       0       0       0
  5486 ;;      Temps:          0       0       0       0       0       0       0       0       0       0       0       0       
      +0       0       0       0       0
  5487 ;;      Totals:         0       0       0       0       0       0       0       0       0       0       0       0       
      +0       0       0       0       0
  5488 ;;Total ram usage:        0 bytes
  5489 ;; Hardware stack levels used: 1
  5490 ;; This function calls:
  5491 ;;		Nothing
  5492 ;; This function is called by:
  5493 ;;		_TM0_ISR
  5494 ;; This function uses a non-reentrant model
  5495 ;;
  5496                           
  5497                           	psect	text22
  5498   00303A                     __ptext22:
  5499                           	callstack 0
  5500   00303A                     _timer_ISR:
  5501                           	callstack 25
  5502   00303A  0012               	return		;funcret
  5503   00303C                     __end_of_timer_ISR:
  5504                           	callstack 0
  5505                           
  5506 ;; *************** function _RB7_ISR *****************
  5507 ;; Defined at:
  5508 ;;		line 167 in file "MCAL_layer/Interrupt/mcal_external_interrupt.c"
  5509 ;; Parameters:    Size  Location     Type
  5510 ;;  RB_Source       1    wreg     unsigned char 
  5511 ;; Auto vars:     Size  Location     Type
  5512 ;;  RB_Source       1   14[COMRAM] unsigned char 
  5513 ;; Return value:  Size  Location     Type
  5514 ;;                  1    wreg      void 
  5515 ;; Registers used:
  5516 ;;		wreg, fsr2l, fsr2h, status,2, status,0, pcl, pclath, pclatu, tosl, prodl, prodh, cstack
  5517 ;; Tracked objects:
  5518 ;;		On entry : 0/0
  5519 ;;		On exit  : 0/0
  5520 ;;		Unchanged: 0/0
  5521 ;; Data sizes:     COMRAM   BANK0   BANK1   BANK2   BANK3   BANK4   BANK5   BANK6   BANK7   BANK8   BANK9  BANK10  BANK1
      +1  BANK12  BANK13  BANK14  BANK15
  5522 ;;      Params:         0       0       0       0       0       0       0       0       0       0       0       0       
      +0       0       0       0       0
  5523 ;;      Locals:         1       0       0       0       0       0       0       0       0       0       0       0       
      +0       0       0       0       0
  5524 ;;      Temps:          0       0       0       0       0       0       0       0       0       0       0       0       
      +0       0       0       0       0
  5525 ;;      Totals:         1       0       0       0       0       0       0       0       0       0       0       0       
      +0       0       0       0       0
  5526 ;;Total ram usage:        1 bytes
  5527 ;; Hardware stack levels used: 1
  5528 ;; Hardware stack levels required when called: 3
  5529 ;; This function calls:
  5530 ;;		NULL
  5531 ;;		_APP_RB4_High
  5532 ;;		_APP_RB4_Low
  5533 ;; This function is called by:
  5534 ;;		_interruptManger
  5535 ;; This function uses a non-reentrant model
  5536 ;;
  5537                           
  5538                           	psect	text23
  5539   00270C                     __ptext23:
  5540                           	callstack 0
  5541   00270C                     _RB7_ISR:
  5542                           	callstack 23
  5543                           
  5544                           ;incstack = 0
  5545                           ;RB7_ISR@RB_Source stored from wreg
  5546   00270C  6E0F               	movwf	RB7_ISR@RB_Source^0,c
  5547   00270E                     
  5548                           ;MCAL_layer/Interrupt/mcal_external_interrupt.c: 168:      (INTCONbits.RBIF = 0);
  5549   00270E  90F2               	bcf	242,0,c	;volatile
  5550   002710                     
  5551                           ;MCAL_layer/Interrupt/mcal_external_interrupt.c: 171:        if(1 == RB_Source)
  5552   002710  040F               	decf	RB7_ISR@RB_Source^0,w,c
  5553   002712  A4D8               	btfss	status,2,c
  5554   002714  EF8E  F013         	goto	i2u616_41
  5555   002718  EF90  F013         	goto	i2u616_40
  5556   00271C                     i2u616_41:
  5557   00271C  EFA8  F013         	goto	i2l6378
  5558   002720                     i2u616_40:
  5559   002720                     
  5560                           ;MCAL_layer/Interrupt/mcal_external_interrupt.c: 172:     {;MCAL_layer/Interrupt/mcal_ex
      +                          ternal_interrupt.c: 173:         if(RB7_InterruptHandler_High)
  5561   002720  0100               	movlb	0	; () banked
  5562   002722  51AC               	movf	_RB7_InterruptHandler_High& (0+255),w,b
  5563   002724  11AD               	iorwf	(_RB7_InterruptHandler_High+1)& (0+255),w,b
  5564   002726  B4D8               	btfsc	status,2,c
  5565   002728  EF98  F013         	goto	i2u617_41
  5566   00272C  EF9A  F013         	goto	i2u617_40
  5567   002730                     i2u617_41:
  5568   002730  EFC6  F013         	goto	i2l1054
  5569   002734                     i2u617_40:
  5570   002734                     
  5571                           ; BSR set to: 0
  5572                           ;MCAL_layer/Interrupt/mcal_external_interrupt.c: 174:         {;MCAL_layer/Interrupt/mca
      +                          l_external_interrupt.c: 175:         RB7_InterruptHandler_High();
  5573   002734  D802               	call	i2u618_48
  5574   002736  EFA6  F013         	goto	i2u618_49
  5575   00273A                     i2u618_48:
  5576   00273A  0005               	push	
  5577   00273C  6EFA               	movwf	pclath,c
  5578   00273E  51AC               	movf	_RB7_InterruptHandler_High& (0+255),w,b
  5579   002740  6EFD               	movwf	tosl,c
  5580   002742  51AD               	movf	(_RB7_InterruptHandler_High+1)& (0+255),w,b
  5581   002744  6EFE               	movwf	tosh,c
  5582   002746  6AFF               	clrf	tosu,c
  5583   002748  50FA               	movf	pclath,w,c
  5584   00274A  0012               	return		;indir
  5585   00274C                     i2u618_49:
  5586   00274C  EFC6  F013         	goto	i2l1054
  5587   002750                     i2l6378:
  5588   002750  500F               	movf	RB7_ISR@RB_Source^0,w,c
  5589   002752  A4D8               	btfss	status,2,c
  5590   002754  EFAE  F013         	goto	i2u619_41
  5591   002758  EFB0  F013         	goto	i2u619_40
  5592   00275C                     i2u619_41:
  5593   00275C  EFC6  F013         	goto	i2l1054
  5594   002760                     i2u619_40:
  5595   002760                     
  5596                           ;MCAL_layer/Interrupt/mcal_external_interrupt.c: 179:     {;MCAL_layer/Interrupt/mcal_ex
      +                          ternal_interrupt.c: 180:         if(RB7_InterruptHandler_Low)
  5597   002760  0100               	movlb	0	; () banked
  5598   002762  51AA               	movf	_RB7_InterruptHandler_Low& (0+255),w,b
  5599   002764  11AB               	iorwf	(_RB7_InterruptHandler_Low+1)& (0+255),w,b
  5600   002766  B4D8               	btfsc	status,2,c
  5601   002768  EFB8  F013         	goto	i2u620_41
  5602   00276C  EFBA  F013         	goto	i2u620_40
  5603   002770                     i2u620_41:
  5604   002770  EFC6  F013         	goto	i2l1054
  5605   002774                     i2u620_40:
  5606   002774                     
  5607                           ; BSR set to: 0
  5608                           ;MCAL_layer/Interrupt/mcal_external_interrupt.c: 181:         {;MCAL_layer/Interrupt/mca
      +                          l_external_interrupt.c: 182:         RB7_InterruptHandler_Low();
  5609   002774  D802               	call	i2u621_48
  5610   002776  EFC6  F013         	goto	i2u621_49
  5611   00277A                     i2u621_48:
  5612   00277A  0005               	push	
  5613   00277C  6EFA               	movwf	pclath,c
  5614   00277E  51AA               	movf	_RB7_InterruptHandler_Low& (0+255),w,b
  5615   002780  6EFD               	movwf	tosl,c
  5616   002782  51AB               	movf	(_RB7_InterruptHandler_Low+1)& (0+255),w,b
  5617   002784  6EFE               	movwf	tosh,c
  5618   002786  6AFF               	clrf	tosu,c
  5619   002788  50FA               	movf	pclath,w,c
  5620   00278A  0012               	return		;indir
  5621   00278C                     i2u621_49:
  5622   00278C                     i2l1054:
  5623   00278C  0012               	return		;funcret
  5624   00278E                     __end_of_RB7_ISR:
  5625                           	callstack 0
  5626                           
  5627 ;; *************** function _RB6_ISR *****************
  5628 ;; Defined at:
  5629 ;;		line 145 in file "MCAL_layer/Interrupt/mcal_external_interrupt.c"
  5630 ;; Parameters:    Size  Location     Type
  5631 ;;  RB_Source       1    wreg     unsigned char 
  5632 ;; Auto vars:     Size  Location     Type
  5633 ;;  RB_Source       1   14[COMRAM] unsigned char 
  5634 ;; Return value:  Size  Location     Type
  5635 ;;                  1    wreg      void 
  5636 ;; Registers used:
  5637 ;;		wreg, fsr2l, fsr2h, status,2, status,0, pcl, pclath, pclatu, tosl, prodl, prodh, cstack
  5638 ;; Tracked objects:
  5639 ;;		On entry : 0/0
  5640 ;;		On exit  : 0/0
  5641 ;;		Unchanged: 0/0
  5642 ;; Data sizes:     COMRAM   BANK0   BANK1   BANK2   BANK3   BANK4   BANK5   BANK6   BANK7   BANK8   BANK9  BANK10  BANK1
      +1  BANK12  BANK13  BANK14  BANK15
  5643 ;;      Params:         0       0       0       0       0       0       0       0       0       0       0       0       
      +0       0       0       0       0
  5644 ;;      Locals:         1       0       0       0       0       0       0       0       0       0       0       0       
      +0       0       0       0       0
  5645 ;;      Temps:          0       0       0       0       0       0       0       0       0       0       0       0       
      +0       0       0       0       0
  5646 ;;      Totals:         1       0       0       0       0       0       0       0       0       0       0       0       
      +0       0       0       0       0
  5647 ;;Total ram usage:        1 bytes
  5648 ;; Hardware stack levels used: 1
  5649 ;; Hardware stack levels required when called: 3
  5650 ;; This function calls:
  5651 ;;		NULL
  5652 ;;		_APP_RB4_High
  5653 ;;		_APP_RB4_Low
  5654 ;; This function is called by:
  5655 ;;		_interruptManger
  5656 ;; This function uses a non-reentrant model
  5657 ;;
  5658                           
  5659                           	psect	text24
  5660   00278E                     __ptext24:
  5661                           	callstack 0
  5662   00278E                     _RB6_ISR:
  5663                           	callstack 23
  5664                           
  5665                           ;incstack = 0
  5666                           ;RB6_ISR@RB_Source stored from wreg
  5667   00278E  6E0F               	movwf	RB6_ISR@RB_Source^0,c
  5668   002790                     
  5669                           ;MCAL_layer/Interrupt/mcal_external_interrupt.c: 146:      (INTCONbits.RBIF = 0);
  5670   002790  90F2               	bcf	242,0,c	;volatile
  5671   002792                     
  5672                           ;MCAL_layer/Interrupt/mcal_external_interrupt.c: 149:        if(1 == RB_Source)
  5673   002792  040F               	decf	RB6_ISR@RB_Source^0,w,c
  5674   002794  A4D8               	btfss	status,2,c
  5675   002796  EFCF  F013         	goto	i2u610_41
  5676   00279A  EFD1  F013         	goto	i2u610_40
  5677   00279E                     i2u610_41:
  5678   00279E  EFE9  F013         	goto	i2l6364
  5679   0027A2                     i2u610_40:
  5680   0027A2                     
  5681                           ;MCAL_layer/Interrupt/mcal_external_interrupt.c: 150:     {;MCAL_layer/Interrupt/mcal_ex
      +                          ternal_interrupt.c: 151:         if(RB6_InterruptHandler_High)
  5682   0027A2  0100               	movlb	0	; () banked
  5683   0027A4  51B0               	movf	_RB6_InterruptHandler_High& (0+255),w,b
  5684   0027A6  11B1               	iorwf	(_RB6_InterruptHandler_High+1)& (0+255),w,b
  5685   0027A8  B4D8               	btfsc	status,2,c
  5686   0027AA  EFD9  F013         	goto	i2u611_41
  5687   0027AE  EFDB  F013         	goto	i2u611_40
  5688   0027B2                     i2u611_41:
  5689   0027B2  EF07  F014         	goto	i2l1045
  5690   0027B6                     i2u611_40:
  5691   0027B6                     
  5692                           ; BSR set to: 0
  5693                           ;MCAL_layer/Interrupt/mcal_external_interrupt.c: 152:         {;MCAL_layer/Interrupt/mca
      +                          l_external_interrupt.c: 153:         RB6_InterruptHandler_High();
  5694   0027B6  D802               	call	i2u612_48
  5695   0027B8  EFE7  F013         	goto	i2u612_49
  5696   0027BC                     i2u612_48:
  5697   0027BC  0005               	push	
  5698   0027BE  6EFA               	movwf	pclath,c
  5699   0027C0  51B0               	movf	_RB6_InterruptHandler_High& (0+255),w,b
  5700   0027C2  6EFD               	movwf	tosl,c
  5701   0027C4  51B1               	movf	(_RB6_InterruptHandler_High+1)& (0+255),w,b
  5702   0027C6  6EFE               	movwf	tosh,c
  5703   0027C8  6AFF               	clrf	tosu,c
  5704   0027CA  50FA               	movf	pclath,w,c
  5705   0027CC  0012               	return		;indir
  5706   0027CE                     i2u612_49:
  5707   0027CE  EF07  F014         	goto	i2l1045
  5708   0027D2                     i2l6364:
  5709   0027D2  500F               	movf	RB6_ISR@RB_Source^0,w,c
  5710   0027D4  A4D8               	btfss	status,2,c
  5711   0027D6  EFEF  F013         	goto	i2u613_41
  5712   0027DA  EFF1  F013         	goto	i2u613_40
  5713   0027DE                     i2u613_41:
  5714   0027DE  EF07  F014         	goto	i2l1045
  5715   0027E2                     i2u613_40:
  5716   0027E2                     
  5717                           ;MCAL_layer/Interrupt/mcal_external_interrupt.c: 157:     {;MCAL_layer/Interrupt/mcal_ex
      +                          ternal_interrupt.c: 158:         if(RB6_InterruptHandler_Low)
  5718   0027E2  0100               	movlb	0	; () banked
  5719   0027E4  51AE               	movf	_RB6_InterruptHandler_Low& (0+255),w,b
  5720   0027E6  11AF               	iorwf	(_RB6_InterruptHandler_Low+1)& (0+255),w,b
  5721   0027E8  B4D8               	btfsc	status,2,c
  5722   0027EA  EFF9  F013         	goto	i2u614_41
  5723   0027EE  EFFB  F013         	goto	i2u614_40
  5724   0027F2                     i2u614_41:
  5725   0027F2  EF07  F014         	goto	i2l1045
  5726   0027F6                     i2u614_40:
  5727   0027F6                     
  5728                           ; BSR set to: 0
  5729                           ;MCAL_layer/Interrupt/mcal_external_interrupt.c: 159:         {;MCAL_layer/Interrupt/mca
      +                          l_external_interrupt.c: 160:         RB6_InterruptHandler_Low();
  5730   0027F6  D802               	call	i2u615_48
  5731   0027F8  EF07  F014         	goto	i2u615_49
  5732   0027FC                     i2u615_48:
  5733   0027FC  0005               	push	
  5734   0027FE  6EFA               	movwf	pclath,c
  5735   002800  51AE               	movf	_RB6_InterruptHandler_Low& (0+255),w,b
  5736   002802  6EFD               	movwf	tosl,c
  5737   002804  51AF               	movf	(_RB6_InterruptHandler_Low+1)& (0+255),w,b
  5738   002806  6EFE               	movwf	tosh,c
  5739   002808  6AFF               	clrf	tosu,c
  5740   00280A  50FA               	movf	pclath,w,c
  5741   00280C  0012               	return		;indir
  5742   00280E                     i2u615_49:
  5743   00280E                     i2l1045:
  5744   00280E  0012               	return		;funcret
  5745   002810                     __end_of_RB6_ISR:
  5746                           	callstack 0
  5747                           
  5748 ;; *************** function _RB5_ISR *****************
  5749 ;; Defined at:
  5750 ;;		line 123 in file "MCAL_layer/Interrupt/mcal_external_interrupt.c"
  5751 ;; Parameters:    Size  Location     Type
  5752 ;;  RB_Source       1    wreg     unsigned char 
  5753 ;; Auto vars:     Size  Location     Type
  5754 ;;  RB_Source       1   14[COMRAM] unsigned char 
  5755 ;; Return value:  Size  Location     Type
  5756 ;;                  1    wreg      void 
  5757 ;; Registers used:
  5758 ;;		wreg, fsr2l, fsr2h, status,2, status,0, pcl, pclath, pclatu, tosl, prodl, prodh, cstack
  5759 ;; Tracked objects:
  5760 ;;		On entry : 0/0
  5761 ;;		On exit  : 0/0
  5762 ;;		Unchanged: 0/0
  5763 ;; Data sizes:     COMRAM   BANK0   BANK1   BANK2   BANK3   BANK4   BANK5   BANK6   BANK7   BANK8   BANK9  BANK10  BANK1
      +1  BANK12  BANK13  BANK14  BANK15
  5764 ;;      Params:         0       0       0       0       0       0       0       0       0       0       0       0       
      +0       0       0       0       0
  5765 ;;      Locals:         1       0       0       0       0       0       0       0       0       0       0       0       
      +0       0       0       0       0
  5766 ;;      Temps:          0       0       0       0       0       0       0       0       0       0       0       0       
      +0       0       0       0       0
  5767 ;;      Totals:         1       0       0       0       0       0       0       0       0       0       0       0       
      +0       0       0       0       0
  5768 ;;Total ram usage:        1 bytes
  5769 ;; Hardware stack levels used: 1
  5770 ;; Hardware stack levels required when called: 3
  5771 ;; This function calls:
  5772 ;;		NULL
  5773 ;;		_APP_RB4_High
  5774 ;;		_APP_RB4_Low
  5775 ;; This function is called by:
  5776 ;;		_interruptManger
  5777 ;; This function uses a non-reentrant model
  5778 ;;
  5779                           
  5780                           	psect	text25
  5781   002810                     __ptext25:
  5782                           	callstack 0
  5783   002810                     _RB5_ISR:
  5784                           	callstack 23
  5785                           
  5786                           ;incstack = 0
  5787                           ;RB5_ISR@RB_Source stored from wreg
  5788   002810  6E0F               	movwf	RB5_ISR@RB_Source^0,c
  5789   002812                     
  5790                           ;MCAL_layer/Interrupt/mcal_external_interrupt.c: 124:      (INTCONbits.RBIF = 0);
  5791   002812  90F2               	bcf	242,0,c	;volatile
  5792   002814                     
  5793                           ;MCAL_layer/Interrupt/mcal_external_interrupt.c: 127:        if(1 == RB_Source)
  5794   002814  040F               	decf	RB5_ISR@RB_Source^0,w,c
  5795   002816  A4D8               	btfss	status,2,c
  5796   002818  EF10  F014         	goto	i2u604_41
  5797   00281C  EF12  F014         	goto	i2u604_40
  5798   002820                     i2u604_41:
  5799   002820  EF2A  F014         	goto	i2l6350
  5800   002824                     i2u604_40:
  5801   002824                     
  5802                           ;MCAL_layer/Interrupt/mcal_external_interrupt.c: 128:     {;MCAL_layer/Interrupt/mcal_ex
      +                          ternal_interrupt.c: 129:         if(RB5_InterruptHandler_High)
  5803   002824  0100               	movlb	0	; () banked
  5804   002826  51B4               	movf	_RB5_InterruptHandler_High& (0+255),w,b
  5805   002828  11B5               	iorwf	(_RB5_InterruptHandler_High+1)& (0+255),w,b
  5806   00282A  B4D8               	btfsc	status,2,c
  5807   00282C  EF1A  F014         	goto	i2u605_41
  5808   002830  EF1C  F014         	goto	i2u605_40
  5809   002834                     i2u605_41:
  5810   002834  EF48  F014         	goto	i2l1036
  5811   002838                     i2u605_40:
  5812   002838                     
  5813                           ; BSR set to: 0
  5814                           ;MCAL_layer/Interrupt/mcal_external_interrupt.c: 130:         {;MCAL_layer/Interrupt/mca
      +                          l_external_interrupt.c: 131:         RB5_InterruptHandler_High();
  5815   002838  D802               	call	i2u606_48
  5816   00283A  EF28  F014         	goto	i2u606_49
  5817   00283E                     i2u606_48:
  5818   00283E  0005               	push	
  5819   002840  6EFA               	movwf	pclath,c
  5820   002842  51B4               	movf	_RB5_InterruptHandler_High& (0+255),w,b
  5821   002844  6EFD               	movwf	tosl,c
  5822   002846  51B5               	movf	(_RB5_InterruptHandler_High+1)& (0+255),w,b
  5823   002848  6EFE               	movwf	tosh,c
  5824   00284A  6AFF               	clrf	tosu,c
  5825   00284C  50FA               	movf	pclath,w,c
  5826   00284E  0012               	return		;indir
  5827   002850                     i2u606_49:
  5828   002850  EF48  F014         	goto	i2l1036
  5829   002854                     i2l6350:
  5830   002854  500F               	movf	RB5_ISR@RB_Source^0,w,c
  5831   002856  A4D8               	btfss	status,2,c
  5832   002858  EF30  F014         	goto	i2u607_41
  5833   00285C  EF32  F014         	goto	i2u607_40
  5834   002860                     i2u607_41:
  5835   002860  EF48  F014         	goto	i2l1036
  5836   002864                     i2u607_40:
  5837   002864                     
  5838                           ;MCAL_layer/Interrupt/mcal_external_interrupt.c: 135:     {;MCAL_layer/Interrupt/mcal_ex
      +                          ternal_interrupt.c: 136:         if(RB5_InterruptHandler_Low)
  5839   002864  0100               	movlb	0	; () banked
  5840   002866  51B2               	movf	_RB5_InterruptHandler_Low& (0+255),w,b
  5841   002868  11B3               	iorwf	(_RB5_InterruptHandler_Low+1)& (0+255),w,b
  5842   00286A  B4D8               	btfsc	status,2,c
  5843   00286C  EF3A  F014         	goto	i2u608_41
  5844   002870  EF3C  F014         	goto	i2u608_40
  5845   002874                     i2u608_41:
  5846   002874  EF48  F014         	goto	i2l1036
  5847   002878                     i2u608_40:
  5848   002878                     
  5849                           ; BSR set to: 0
  5850                           ;MCAL_layer/Interrupt/mcal_external_interrupt.c: 137:         {;MCAL_layer/Interrupt/mca
      +                          l_external_interrupt.c: 138:         RB5_InterruptHandler_Low();
  5851   002878  D802               	call	i2u609_48
  5852   00287A  EF48  F014         	goto	i2u609_49
  5853   00287E                     i2u609_48:
  5854   00287E  0005               	push	
  5855   002880  6EFA               	movwf	pclath,c
  5856   002882  51B2               	movf	_RB5_InterruptHandler_Low& (0+255),w,b
  5857   002884  6EFD               	movwf	tosl,c
  5858   002886  51B3               	movf	(_RB5_InterruptHandler_Low+1)& (0+255),w,b
  5859   002888  6EFE               	movwf	tosh,c
  5860   00288A  6AFF               	clrf	tosu,c
  5861   00288C  50FA               	movf	pclath,w,c
  5862   00288E  0012               	return		;indir
  5863   002890                     i2u609_49:
  5864   002890                     i2l1036:
  5865   002890  0012               	return		;funcret
  5866   002892                     __end_of_RB5_ISR:
  5867                           	callstack 0
  5868                           
  5869 ;; *************** function _RB4_ISR *****************
  5870 ;; Defined at:
  5871 ;;		line 101 in file "MCAL_layer/Interrupt/mcal_external_interrupt.c"
  5872 ;; Parameters:    Size  Location     Type
  5873 ;;  RB_Source       1    wreg     unsigned char 
  5874 ;; Auto vars:     Size  Location     Type
  5875 ;;  RB_Source       1   14[COMRAM] unsigned char 
  5876 ;; Return value:  Size  Location     Type
  5877 ;;                  1    wreg      void 
  5878 ;; Registers used:
  5879 ;;		wreg, fsr2l, fsr2h, status,2, status,0, pcl, pclath, pclatu, tosl, prodl, prodh, cstack
  5880 ;; Tracked objects:
  5881 ;;		On entry : 0/0
  5882 ;;		On exit  : 0/0
  5883 ;;		Unchanged: 0/0
  5884 ;; Data sizes:     COMRAM   BANK0   BANK1   BANK2   BANK3   BANK4   BANK5   BANK6   BANK7   BANK8   BANK9  BANK10  BANK1
      +1  BANK12  BANK13  BANK14  BANK15
  5885 ;;      Params:         0       0       0       0       0       0       0       0       0       0       0       0       
      +0       0       0       0       0
  5886 ;;      Locals:         1       0       0       0       0       0       0       0       0       0       0       0       
      +0       0       0       0       0
  5887 ;;      Temps:          0       0       0       0       0       0       0       0       0       0       0       0       
      +0       0       0       0       0
  5888 ;;      Totals:         1       0       0       0       0       0       0       0       0       0       0       0       
      +0       0       0       0       0
  5889 ;;Total ram usage:        1 bytes
  5890 ;; Hardware stack levels used: 1
  5891 ;; Hardware stack levels required when called: 3
  5892 ;; This function calls:
  5893 ;;		NULL
  5894 ;;		_APP_RB4_High
  5895 ;;		_APP_RB4_Low
  5896 ;; This function is called by:
  5897 ;;		_interruptManger
  5898 ;; This function uses a non-reentrant model
  5899 ;;
  5900                           
  5901                           	psect	text26
  5902   002892                     __ptext26:
  5903                           	callstack 0
  5904   002892                     _RB4_ISR:
  5905                           	callstack 23
  5906                           
  5907                           ;incstack = 0
  5908                           ;RB4_ISR@RB_Source stored from wreg
  5909   002892  6E0F               	movwf	RB4_ISR@RB_Source^0,c
  5910   002894                     
  5911                           ;MCAL_layer/Interrupt/mcal_external_interrupt.c: 102:      (INTCONbits.RBIF = 0);
  5912   002894  90F2               	bcf	242,0,c	;volatile
  5913   002896                     
  5914                           ;MCAL_layer/Interrupt/mcal_external_interrupt.c: 105:        if(1 == RB_Source)
  5915   002896  040F               	decf	RB4_ISR@RB_Source^0,w,c
  5916   002898  A4D8               	btfss	status,2,c
  5917   00289A  EF51  F014         	goto	i2u598_41
  5918   00289E  EF53  F014         	goto	i2u598_40
  5919   0028A2                     i2u598_41:
  5920   0028A2  EF6B  F014         	goto	i2l6336
  5921   0028A6                     i2u598_40:
  5922   0028A6                     
  5923                           ;MCAL_layer/Interrupt/mcal_external_interrupt.c: 106:     {;MCAL_layer/Interrupt/mcal_ex
      +                          ternal_interrupt.c: 107:         if(RB4_InterruptHandler_High)
  5924   0028A6  0100               	movlb	0	; () banked
  5925   0028A8  51B8               	movf	_RB4_InterruptHandler_High& (0+255),w,b
  5926   0028AA  11B9               	iorwf	(_RB4_InterruptHandler_High+1)& (0+255),w,b
  5927   0028AC  B4D8               	btfsc	status,2,c
  5928   0028AE  EF5B  F014         	goto	i2u599_41
  5929   0028B2  EF5D  F014         	goto	i2u599_40
  5930   0028B6                     i2u599_41:
  5931   0028B6  EF89  F014         	goto	i2l1027
  5932   0028BA                     i2u599_40:
  5933   0028BA                     
  5934                           ; BSR set to: 0
  5935                           ;MCAL_layer/Interrupt/mcal_external_interrupt.c: 108:         {;MCAL_layer/Interrupt/mca
      +                          l_external_interrupt.c: 109:         RB4_InterruptHandler_High();
  5936   0028BA  D802               	call	i2u600_48
  5937   0028BC  EF69  F014         	goto	i2u600_49
  5938   0028C0                     i2u600_48:
  5939   0028C0  0005               	push	
  5940   0028C2  6EFA               	movwf	pclath,c
  5941   0028C4  51B8               	movf	_RB4_InterruptHandler_High& (0+255),w,b
  5942   0028C6  6EFD               	movwf	tosl,c
  5943   0028C8  51B9               	movf	(_RB4_InterruptHandler_High+1)& (0+255),w,b
  5944   0028CA  6EFE               	movwf	tosh,c
  5945   0028CC  6AFF               	clrf	tosu,c
  5946   0028CE  50FA               	movf	pclath,w,c
  5947   0028D0  0012               	return		;indir
  5948   0028D2                     i2u600_49:
  5949   0028D2  EF89  F014         	goto	i2l1027
  5950   0028D6                     i2l6336:
  5951   0028D6  500F               	movf	RB4_ISR@RB_Source^0,w,c
  5952   0028D8  A4D8               	btfss	status,2,c
  5953   0028DA  EF71  F014         	goto	i2u601_41
  5954   0028DE  EF73  F014         	goto	i2u601_40
  5955   0028E2                     i2u601_41:
  5956   0028E2  EF89  F014         	goto	i2l1027
  5957   0028E6                     i2u601_40:
  5958   0028E6                     
  5959                           ;MCAL_layer/Interrupt/mcal_external_interrupt.c: 113:     {;MCAL_layer/Interrupt/mcal_ex
      +                          ternal_interrupt.c: 114:         if(RB4_InterruptHandler_Low)
  5960   0028E6  0100               	movlb	0	; () banked
  5961   0028E8  51B6               	movf	_RB4_InterruptHandler_Low& (0+255),w,b
  5962   0028EA  11B7               	iorwf	(_RB4_InterruptHandler_Low+1)& (0+255),w,b
  5963   0028EC  B4D8               	btfsc	status,2,c
  5964   0028EE  EF7B  F014         	goto	i2u602_41
  5965   0028F2  EF7D  F014         	goto	i2u602_40
  5966   0028F6                     i2u602_41:
  5967   0028F6  EF89  F014         	goto	i2l1027
  5968   0028FA                     i2u602_40:
  5969   0028FA                     
  5970                           ; BSR set to: 0
  5971                           ;MCAL_layer/Interrupt/mcal_external_interrupt.c: 115:         {;MCAL_layer/Interrupt/mca
      +                          l_external_interrupt.c: 116:         RB4_InterruptHandler_Low();
  5972   0028FA  D802               	call	i2u603_48
  5973   0028FC  EF89  F014         	goto	i2u603_49
  5974   002900                     i2u603_48:
  5975   002900  0005               	push	
  5976   002902  6EFA               	movwf	pclath,c
  5977   002904  51B6               	movf	_RB4_InterruptHandler_Low& (0+255),w,b
  5978   002906  6EFD               	movwf	tosl,c
  5979   002908  51B7               	movf	(_RB4_InterruptHandler_Low+1)& (0+255),w,b
  5980   00290A  6EFE               	movwf	tosh,c
  5981   00290C  6AFF               	clrf	tosu,c
  5982   00290E  50FA               	movf	pclath,w,c
  5983   002910  0012               	return		;indir
  5984   002912                     i2u603_49:
  5985   002912                     i2l1027:
  5986   002912  0012               	return		;funcret
  5987   002914                     __end_of_RB4_ISR:
  5988                           	callstack 0
  5989                           
  5990 ;; *************** function _APP_RB4_Low *****************
  5991 ;; Defined at:
  5992 ;;		line 432 in file "Embe_Initialization.c"
  5993 ;; Parameters:    Size  Location     Type
  5994 ;;		None
  5995 ;; Auto vars:     Size  Location     Type
  5996 ;;		None
  5997 ;; Return value:  Size  Location     Type
  5998 ;;                  1    wreg      void 
  5999 ;; Registers used:
  6000 ;;		wreg, fsr2l, fsr2h, status,2, status,0, prodl, prodh, cstack
  6001 ;; Tracked objects:
  6002 ;;		On entry : 0/0
  6003 ;;		On exit  : 0/0
  6004 ;;		Unchanged: 0/0
  6005 ;; Data sizes:     COMRAM   BANK0   BANK1   BANK2   BANK3   BANK4   BANK5   BANK6   BANK7   BANK8   BANK9  BANK10  BANK1
      +1  BANK12  BANK13  BANK14  BANK15
  6006 ;;      Params:         0       0       0       0       0       0       0       0       0       0       0       0       
      +0       0       0       0       0
  6007 ;;      Locals:         0       0       0       0       0       0       0       0       0       0       0       0       
      +0       0       0       0       0
  6008 ;;      Temps:          0       0       0       0       0       0       0       0       0       0       0       0       
      +0       0       0       0       0
  6009 ;;      Totals:         0       0       0       0       0       0       0       0       0       0       0       0       
      +0       0       0       0       0
  6010 ;;Total ram usage:        0 bytes
  6011 ;; Hardware stack levels used: 1
  6012 ;; Hardware stack levels required when called: 2
  6013 ;; This function calls:
  6014 ;;		i2_led_turn_off
  6015 ;; This function is called by:
  6016 ;;		_RB4_ISR
  6017 ;;		_RB5_ISR
  6018 ;;		_RB6_ISR
  6019 ;;		_RB7_ISR
  6020 ;; This function uses a non-reentrant model
  6021 ;;
  6022                           
  6023                           	psect	text27
  6024   002FCC                     __ptext27:
  6025                           	callstack 0
  6026   002FCC                     _APP_RB4_Low:
  6027                           	callstack 23
  6028   002FCC                     
  6029                           ;Embe_Initialization.c: 434:    ret = led_turn_off(&led_1);
  6030   002FCC  0E69               	movlw	low _led_1
  6031   002FCE  6E0A               	movwf	i2led_turn_off@led^0,c
  6032   002FD0  0E00               	movlw	high _led_1
  6033   002FD2  6E0B               	movwf	(i2led_turn_off@led+1)^0,c
  6034   002FD4  EC4B  F015         	call	i2_led_turn_off	;wreg free
  6035   002FD8  0100               	movlb	0	; () banked
  6036   002FDA  6FFF               	movwf	_ret& (0+255),b
  6037   002FDC                     
  6038                           ; BSR set to: 0
  6039   002FDC  0012               	return		;funcret
  6040   002FDE                     __end_of_APP_RB4_Low:
  6041                           	callstack 0
  6042                           
  6043 ;; *************** function i2_led_turn_off *****************
  6044 ;; Defined at:
  6045 ;;		line 44 in file "ECU_layer/LED/ecu_led.c"
  6046 ;; Parameters:    Size  Location     Type
  6047 ;;  led             2    9[COMRAM] PTR const struct .
  6048 ;;		 -> led_1(1), 
  6049 ;; Auto vars:     Size  Location     Type
  6050 ;;  config          1   13[COMRAM] struct .
  6051 ;;  ret             1   12[COMRAM] unsigned char 
  6052 ;; Return value:  Size  Location     Type
  6053 ;;                  1    wreg      unsigned char 
  6054 ;; Registers used:
  6055 ;;		wreg, fsr2l, fsr2h, status,2, status,0, prodl, prodh, cstack
  6056 ;; Tracked objects:
  6057 ;;		On entry : 0/0
  6058 ;;		On exit  : 0/0
  6059 ;;		Unchanged: 0/0
  6060 ;; Data sizes:     COMRAM   BANK0   BANK1   BANK2   BANK3   BANK4   BANK5   BANK6   BANK7   BANK8   BANK9  BANK10  BANK1
      +1  BANK12  BANK13  BANK14  BANK15
  6061 ;;      Params:         2       0       0       0       0       0       0       0       0       0       0       0       
      +0       0       0       0       0
  6062 ;;      Locals:         2       0       0       0       0       0       0       0       0       0       0       0       
      +0       0       0       0       0
  6063 ;;      Temps:          1       0       0       0       0       0       0       0       0       0       0       0       
      +0       0       0       0       0
  6064 ;;      Totals:         5       0       0       0       0       0       0       0       0       0       0       0       
      +0       0       0       0       0
  6065 ;;Total ram usage:        5 bytes
  6066 ;; Hardware stack levels used: 1
  6067 ;; Hardware stack levels required when called: 1
  6068 ;; This function calls:
  6069 ;;		i2_gpio_pin_write_logic
  6070 ;; This function is called by:
  6071 ;;		_APP_RB4_Low
  6072 ;; This function uses a non-reentrant model
  6073 ;;
  6074                           
  6075                           	psect	text28
  6076   002A96                     __ptext28:
  6077                           	callstack 0
  6078   002A96                     i2_led_turn_off:
  6079                           	callstack 23
  6080   002A96                     
  6081                           ;ECU_layer/LED/ecu_led.c: 45:     Std_ReturnType ret = (Std_ReturnType)0x01 ;
  6082   002A96  0E01               	movlw	1
  6083   002A98  6E0D               	movwf	i2led_turn_off@ret^0,c
  6084   002A9A                     
  6085                           ;ECU_layer/LED/ecu_led.c: 46:     if(((void*)0) == led)
  6086   002A9A  500A               	movf	i2led_turn_off@led^0,w,c
  6087   002A9C  100B               	iorwf	(i2led_turn_off@led+1)^0,w,c
  6088   002A9E  A4D8               	btfss	status,2,c
  6089   002AA0  EF54  F015         	goto	i2u473_41
  6090   002AA4  EF56  F015         	goto	i2u473_40
  6091   002AA8                     i2u473_41:
  6092   002AA8  EF5A  F015         	goto	i2l299
  6093   002AAC                     i2u473_40:
  6094   002AAC                     
  6095                           ;ECU_layer/LED/ecu_led.c: 47:     {;ECU_layer/LED/ecu_led.c: 48:         ret = (Std_Retu
      +                          rnType)0x00 ;
  6096   002AAC  0E00               	movlw	0
  6097   002AAE  6E0D               	movwf	i2led_turn_off@ret^0,c
  6098                           
  6099                           ;ECU_layer/LED/ecu_led.c: 49:     }
  6100   002AB0  EF89  F015         	goto	i2l5544
  6101   002AB4                     i2l299:
  6102                           
  6103                           ;ECU_layer/LED/ecu_led.c: 51:     {;ECU_layer/LED/ecu_led.c: 52:         pin_config_t co
      +                          nfig = {
  6104   002AB4  C055  F00E         	movff	led_turn_off@F3026,i2led_turn_off@config
  6105   002AB8  C00A  FFD9         	movff	i2led_turn_off@led,fsr2l
  6106   002ABC  C00B  FFDA         	movff	i2led_turn_off@led+1,fsr2h
  6107   002AC0  50DF               	movf	223,w,c
  6108   002AC2  0B0F               	andlw	15
  6109   002AC4  6E0C               	movwf	??i2_led_turn_off^0,c
  6110   002AC6  500E               	movf	i2led_turn_off@config^0,w,c
  6111   002AC8  180C               	xorwf	??i2_led_turn_off^0,w,c
  6112   002ACA  0BF8               	andlw	-8
  6113   002ACC  180C               	xorwf	??i2_led_turn_off^0,w,c
  6114   002ACE  6E0E               	movwf	i2led_turn_off@config^0,c
  6115   002AD0  C00A  FFD9         	movff	i2led_turn_off@led,fsr2l
  6116   002AD4  C00B  FFDA         	movff	i2led_turn_off@led+1,fsr2h
  6117   002AD8  38DF               	swapf	223,w,c
  6118   002ADA  0B07               	andlw	7
  6119   002ADC  6E0C               	movwf	??i2_led_turn_off^0,c
  6120   002ADE  460C               	rlncf	??i2_led_turn_off^0,f,c
  6121   002AE0  460C               	rlncf	??i2_led_turn_off^0,f,c
  6122   002AE2  460C               	rlncf	??i2_led_turn_off^0,f,c
  6123   002AE4  500E               	movf	i2led_turn_off@config^0,w,c
  6124   002AE6  180C               	xorwf	??i2_led_turn_off^0,w,c
  6125   002AE8  0BC7               	andlw	-57
  6126   002AEA  180C               	xorwf	??i2_led_turn_off^0,w,c
  6127   002AEC  6E0E               	movwf	i2led_turn_off@config^0,c
  6128   002AEE  9C0E               	bcf	i2led_turn_off@config^0,6,c
  6129   002AF0  C00A  FFD9         	movff	i2led_turn_off@led,fsr2l
  6130   002AF4  C00B  FFDA         	movff	i2led_turn_off@led+1,fsr2h
  6131   002AF8  AEDF               	btfss	indf2,7,c
  6132   002AFA  D002               	bra	i2u474_45
  6133   002AFC  8E0E               	bsf	i2led_turn_off@config^0,7,c
  6134   002AFE  D001               	bra	i2u474_47
  6135   002B00                     i2u474_45:
  6136   002B00  9E0E               	bcf	i2led_turn_off@config^0,7,c
  6137   002B02                     i2u474_47:
  6138   002B02                     
  6139                           ;ECU_layer/LED/ecu_led.c: 57:         gpio_pin_write_logic(&config , GPIO_LOW);
  6140   002B02  0E0E               	movlw	low i2led_turn_off@config
  6141   002B04  6E01               	movwf	i2gpio_pin_write_logic@pin_config^0,c
  6142   002B06  0E00               	movlw	high i2led_turn_off@config
  6143   002B08  6E02               	movwf	(i2gpio_pin_write_logic@pin_config+1)^0,c
  6144   002B0A  0E00               	movlw	0
  6145   002B0C  6E03               	movwf	i2gpio_pin_write_logic@logic^0,c
  6146   002B0E  EC50  F011         	call	i2_gpio_pin_write_logic	;wreg free
  6147   002B12                     i2l5544:
  6148                           
  6149                           ;ECU_layer/LED/ecu_led.c: 59:       return ret ;
  6150   002B12  500D               	movf	i2led_turn_off@ret^0,w,c
  6151   002B14  0012               	return		;funcret
  6152   002B16                     __end_ofi2_led_turn_off:
  6153                           	callstack 0
  6154                           
  6155 ;; *************** function _APP_RB4_High *****************
  6156 ;; Defined at:
  6157 ;;		line 427 in file "Embe_Initialization.c"
  6158 ;; Parameters:    Size  Location     Type
  6159 ;;		None
  6160 ;; Auto vars:     Size  Location     Type
  6161 ;;		None
  6162 ;; Return value:  Size  Location     Type
  6163 ;;                  1    wreg      void 
  6164 ;; Registers used:
  6165 ;;		wreg, fsr2l, fsr2h, status,2, status,0, prodl, prodh, cstack
  6166 ;; Tracked objects:
  6167 ;;		On entry : 0/0
  6168 ;;		On exit  : 0/0
  6169 ;;		Unchanged: 0/0
  6170 ;; Data sizes:     COMRAM   BANK0   BANK1   BANK2   BANK3   BANK4   BANK5   BANK6   BANK7   BANK8   BANK9  BANK10  BANK1
      +1  BANK12  BANK13  BANK14  BANK15
  6171 ;;      Params:         0       0       0       0       0       0       0       0       0       0       0       0       
      +0       0       0       0       0
  6172 ;;      Locals:         0       0       0       0       0       0       0       0       0       0       0       0       
      +0       0       0       0       0
  6173 ;;      Temps:          0       0       0       0       0       0       0       0       0       0       0       0       
      +0       0       0       0       0
  6174 ;;      Totals:         0       0       0       0       0       0       0       0       0       0       0       0       
      +0       0       0       0       0
  6175 ;;Total ram usage:        0 bytes
  6176 ;; Hardware stack levels used: 1
  6177 ;; Hardware stack levels required when called: 2
  6178 ;; This function calls:
  6179 ;;		i2_led_turn_on
  6180 ;; This function is called by:
  6181 ;;		_RB4_ISR
  6182 ;;		_RB5_ISR
  6183 ;;		_RB6_ISR
  6184 ;;		_RB7_ISR
  6185 ;; This function uses a non-reentrant model
  6186 ;;
  6187                           
  6188                           	psect	text29
  6189   002FDE                     __ptext29:
  6190                           	callstack 0
  6191   002FDE                     _APP_RB4_High:
  6192                           	callstack 23
  6193   002FDE                     
  6194                           ;Embe_Initialization.c: 429:    ret = led_turn_on(&led_1);
  6195   002FDE  0E69               	movlw	low _led_1
  6196   002FE0  6E0A               	movwf	i2led_turn_on@led^0,c
  6197   002FE2  0E00               	movlw	high _led_1
  6198   002FE4  6E0B               	movwf	(i2led_turn_on@led+1)^0,c
  6199   002FE6  EC8B  F015         	call	i2_led_turn_on	;wreg free
  6200   002FEA  0100               	movlb	0	; () banked
  6201   002FEC  6FFF               	movwf	_ret& (0+255),b
  6202   002FEE                     
  6203                           ; BSR set to: 0
  6204   002FEE  0012               	return		;funcret
  6205   002FF0                     __end_of_APP_RB4_High:
  6206                           	callstack 0
  6207                           
  6208 ;; *************** function i2_led_turn_on *****************
  6209 ;; Defined at:
  6210 ;;		line 27 in file "ECU_layer/LED/ecu_led.c"
  6211 ;; Parameters:    Size  Location     Type
  6212 ;;  led             2    9[COMRAM] PTR const struct .
  6213 ;;		 -> led_1(1), 
  6214 ;; Auto vars:     Size  Location     Type
  6215 ;;  config          1   13[COMRAM] struct .
  6216 ;;  ret             1   12[COMRAM] unsigned char 
  6217 ;; Return value:  Size  Location     Type
  6218 ;;                  1    wreg      unsigned char 
  6219 ;; Registers used:
  6220 ;;		wreg, fsr2l, fsr2h, status,2, status,0, prodl, prodh, cstack
  6221 ;; Tracked objects:
  6222 ;;		On entry : 0/0
  6223 ;;		On exit  : 0/0
  6224 ;;		Unchanged: 0/0
  6225 ;; Data sizes:     COMRAM   BANK0   BANK1   BANK2   BANK3   BANK4   BANK5   BANK6   BANK7   BANK8   BANK9  BANK10  BANK1
      +1  BANK12  BANK13  BANK14  BANK15
  6226 ;;      Params:         2       0       0       0       0       0       0       0       0       0       0       0       
      +0       0       0       0       0
  6227 ;;      Locals:         2       0       0       0       0       0       0       0       0       0       0       0       
      +0       0       0       0       0
  6228 ;;      Temps:          1       0       0       0       0       0       0       0       0       0       0       0       
      +0       0       0       0       0
  6229 ;;      Totals:         5       0       0       0       0       0       0       0       0       0       0       0       
      +0       0       0       0       0
  6230 ;;Total ram usage:        5 bytes
  6231 ;; Hardware stack levels used: 1
  6232 ;; Hardware stack levels required when called: 1
  6233 ;; This function calls:
  6234 ;;		i2_gpio_pin_write_logic
  6235 ;; This function is called by:
  6236 ;;		_APP_RB4_High
  6237 ;; This function uses a non-reentrant model
  6238 ;;
  6239                           
  6240                           	psect	text30
  6241   002B16                     __ptext30:
  6242                           	callstack 0
  6243   002B16                     i2_led_turn_on:
  6244                           	callstack 23
  6245   002B16                     
  6246                           ;ECU_layer/LED/ecu_led.c: 28:     Std_ReturnType ret = (Std_ReturnType)0x01 ;
  6247   002B16  0E01               	movlw	1
  6248   002B18  6E0D               	movwf	i2led_turn_on@ret^0,c
  6249   002B1A                     
  6250                           ;ECU_layer/LED/ecu_led.c: 29:     if(((void*)0) == led)
  6251   002B1A  500A               	movf	i2led_turn_on@led^0,w,c
  6252   002B1C  100B               	iorwf	(i2led_turn_on@led+1)^0,w,c
  6253   002B1E  A4D8               	btfss	status,2,c
  6254   002B20  EF94  F015         	goto	i2u471_41
  6255   002B24  EF96  F015         	goto	i2u471_40
  6256   002B28                     i2u471_41:
  6257   002B28  EF9A  F015         	goto	i2l292
  6258   002B2C                     i2u471_40:
  6259   002B2C                     
  6260                           ;ECU_layer/LED/ecu_led.c: 30:     {;ECU_layer/LED/ecu_led.c: 31:         ret = (Std_Retu
      +                          rnType)0x00 ;
  6261   002B2C  0E00               	movlw	0
  6262   002B2E  6E0D               	movwf	i2led_turn_on@ret^0,c
  6263                           
  6264                           ;ECU_layer/LED/ecu_led.c: 32:     }
  6265   002B30  EFC9  F015         	goto	i2l5526
  6266   002B34                     i2l292:
  6267                           
  6268                           ;ECU_layer/LED/ecu_led.c: 34:     {;ECU_layer/LED/ecu_led.c: 35:         pin_config_t co
      +                          nfig = {
  6269   002B34  C056  F00E         	movff	led_turn_on@F3021,i2led_turn_on@config
  6270   002B38  C00A  FFD9         	movff	i2led_turn_on@led,fsr2l
  6271   002B3C  C00B  FFDA         	movff	i2led_turn_on@led+1,fsr2h
  6272   002B40  50DF               	movf	223,w,c
  6273   002B42  0B0F               	andlw	15
  6274   002B44  6E0C               	movwf	??i2_led_turn_on^0,c
  6275   002B46  500E               	movf	i2led_turn_on@config^0,w,c
  6276   002B48  180C               	xorwf	??i2_led_turn_on^0,w,c
  6277   002B4A  0BF8               	andlw	-8
  6278   002B4C  180C               	xorwf	??i2_led_turn_on^0,w,c
  6279   002B4E  6E0E               	movwf	i2led_turn_on@config^0,c
  6280   002B50  C00A  FFD9         	movff	i2led_turn_on@led,fsr2l
  6281   002B54  C00B  FFDA         	movff	i2led_turn_on@led+1,fsr2h
  6282   002B58  38DF               	swapf	223,w,c
  6283   002B5A  0B07               	andlw	7
  6284   002B5C  6E0C               	movwf	??i2_led_turn_on^0,c
  6285   002B5E  460C               	rlncf	??i2_led_turn_on^0,f,c
  6286   002B60  460C               	rlncf	??i2_led_turn_on^0,f,c
  6287   002B62  460C               	rlncf	??i2_led_turn_on^0,f,c
  6288   002B64  500E               	movf	i2led_turn_on@config^0,w,c
  6289   002B66  180C               	xorwf	??i2_led_turn_on^0,w,c
  6290   002B68  0BC7               	andlw	-57
  6291   002B6A  180C               	xorwf	??i2_led_turn_on^0,w,c
  6292   002B6C  6E0E               	movwf	i2led_turn_on@config^0,c
  6293   002B6E  9C0E               	bcf	i2led_turn_on@config^0,6,c
  6294   002B70  C00A  FFD9         	movff	i2led_turn_on@led,fsr2l
  6295   002B74  C00B  FFDA         	movff	i2led_turn_on@led+1,fsr2h
  6296   002B78  AEDF               	btfss	indf2,7,c
  6297   002B7A  D002               	bra	i2u472_45
  6298   002B7C  8E0E               	bsf	i2led_turn_on@config^0,7,c
  6299   002B7E  D001               	bra	i2u472_47
  6300   002B80                     i2u472_45:
  6301   002B80  9E0E               	bcf	i2led_turn_on@config^0,7,c
  6302   002B82                     i2u472_47:
  6303   002B82                     
  6304                           ;ECU_layer/LED/ecu_led.c: 40:         gpio_pin_write_logic(&config , GPIO_HIGH);
  6305   002B82  0E0E               	movlw	low i2led_turn_on@config
  6306   002B84  6E01               	movwf	i2gpio_pin_write_logic@pin_config^0,c
  6307   002B86  0E00               	movlw	high i2led_turn_on@config
  6308   002B88  6E02               	movwf	(i2gpio_pin_write_logic@pin_config+1)^0,c
  6309   002B8A  0E01               	movlw	1
  6310   002B8C  6E03               	movwf	i2gpio_pin_write_logic@logic^0,c
  6311   002B8E  EC50  F011         	call	i2_gpio_pin_write_logic	;wreg free
  6312   002B92                     i2l5526:
  6313                           
  6314                           ;ECU_layer/LED/ecu_led.c: 42:       return ret ;
  6315   002B92  500D               	movf	i2led_turn_on@ret^0,w,c
  6316   002B94  0012               	return		;funcret
  6317   002B96                     __end_ofi2_led_turn_on:
  6318                           	callstack 0
  6319                           
  6320 ;; *************** function i2_gpio_pin_write_logic *****************
  6321 ;; Defined at:
  6322 ;;		line 44 in file "MCAL_layer/GPIO/hal_gpio.c"
  6323 ;; Parameters:    Size  Location     Type
  6324 ;;  pin_config      2    0[COMRAM] PTR const struct .
  6325 ;;		 -> i2led_turn_off@config(1), i2led_turn_on@config(1), relay_turn_off@config(1), relay_turn_on@config(1), 
  6326 ;;		 -> relay_intialize@config(1), led_turn_off@config(1), led_turn_on@config(1), led_intialize@config(1), 
  6327 ;;		 -> dc_motor_stop@config_2(1), dc_motor_stop@config_1(1), dc_motor_turn_left@config_2(1), dc_motor_turn_left@config_
      +1(1), 
  6328 ;;		 -> dc_motor_turn_right@config_2(1), dc_motor_turn_right@config_1(1), dc_motor_intialize@config_2(1), dc_motor_intia
      +lize@config_1(1), 
  6329 ;;  logic           1    2[COMRAM] enum E2936
  6330 ;; Auto vars:     Size  Location     Type
  6331 ;;  ret             1    0        unsigned char 
  6332 ;; Return value:  Size  Location     Type
  6333 ;;                  1    wreg      unsigned char 
  6334 ;; Registers used:
  6335 ;;		wreg, fsr2l, fsr2h, status,2, status,0, prodl, prodh
  6336 ;; Tracked objects:
  6337 ;;		On entry : 0/0
  6338 ;;		On exit  : 0/0
  6339 ;;		Unchanged: 0/0
  6340 ;; Data sizes:     COMRAM   BANK0   BANK1   BANK2   BANK3   BANK4   BANK5   BANK6   BANK7   BANK8   BANK9  BANK10  BANK1
      +1  BANK12  BANK13  BANK14  BANK15
  6341 ;;      Params:         3       0       0       0       0       0       0       0       0       0       0       0       
      +0       0       0       0       0
  6342 ;;      Locals:         0       0       0       0       0       0       0       0       0       0       0       0       
      +0       0       0       0       0
  6343 ;;      Temps:          6       0       0       0       0       0       0       0       0       0       0       0       
      +0       0       0       0       0
  6344 ;;      Totals:         9       0       0       0       0       0       0       0       0       0       0       0       
      +0       0       0       0       0
  6345 ;;Total ram usage:        9 bytes
  6346 ;; Hardware stack levels used: 1
  6347 ;; This function calls:
  6348 ;;		Nothing
  6349 ;; This function is called by:
  6350 ;;		i2_led_turn_on
  6351 ;;		i2_led_turn_off
  6352 ;; This function uses a non-reentrant model
  6353 ;;
  6354                           
  6355                           	psect	text31
  6356   0022A0                     __ptext31:
  6357                           	callstack 0
  6358   0022A0                     i2_gpio_pin_write_logic:
  6359                           	callstack 23
  6360   0022A0                     
  6361                           ;MCAL_layer/GPIO/hal_gpio.c: 46:     if(((void*)0) == pin_config || pin_config->pin > 8 
      +                          - 1)
  6362   0022A0  5001               	movf	i2gpio_pin_write_logic@pin_config^0,w,c
  6363   0022A2  1002               	iorwf	(i2gpio_pin_write_logic@pin_config+1)^0,w,c
  6364   0022A4  B4D8               	btfsc	status,2,c
  6365   0022A6  EF57  F011         	goto	i2u451_41
  6366   0022AA  EF59  F011         	goto	i2u451_40
  6367   0022AE                     i2u451_41:
  6368   0022AE  EF6A  F011         	goto	i2l5400
  6369   0022B2                     i2u451_40:
  6370   0022B2  C001  FFD9         	movff	i2gpio_pin_write_logic@pin_config,fsr2l
  6371   0022B6  C002  FFDA         	movff	i2gpio_pin_write_logic@pin_config+1,fsr2h
  6372   0022BA  30DF               	rrcf	223,w,c
  6373   0022BC  32E8               	rrcf	wreg,f,c
  6374   0022BE  32E8               	rrcf	wreg,f,c
  6375   0022C0  0B07               	andlw	7
  6376   0022C2  6E04               	movwf	??i2_gpio_pin_write_logic^0,c
  6377   0022C4  0E07               	movlw	7
  6378   0022C6  6404               	cpfsgt	??i2_gpio_pin_write_logic^0,c
  6379   0022C8  EF68  F011         	goto	i2u452_41
  6380   0022CC  EF6A  F011         	goto	i2u452_40
  6381   0022D0                     i2u452_41:
  6382   0022D0  EFCB  F011         	goto	i2l5408
  6383   0022D4                     i2u452_40:
  6384   0022D4                     i2l5400:
  6385                           
  6386                           ;MCAL_layer/GPIO/hal_gpio.c: 49:     }
  6387   0022D4  EFE0  F011         	goto	i2l686
  6388   0022D8                     i2l5402:
  6389                           
  6390                           ;MCAL_layer/GPIO/hal_gpio.c: 54:                 (*lat_register[pin_config->port] &= ~((
      +                          uint8) 1 << pin_config->pin));
  6391   0022D8  C001  FFD9         	movff	i2gpio_pin_write_logic@pin_config,fsr2l
  6392   0022DC  C002  FFDA         	movff	i2gpio_pin_write_logic@pin_config+1,fsr2h
  6393   0022E0  30DF               	rrcf	223,w,c
  6394   0022E2  32E8               	rrcf	wreg,f,c
  6395   0022E4  32E8               	rrcf	wreg,f,c
  6396   0022E6  0B07               	andlw	7
  6397   0022E8  6E04               	movwf	??i2_gpio_pin_write_logic^0,c
  6398   0022EA  0E01               	movlw	1
  6399   0022EC  6E05               	movwf	(??i2_gpio_pin_write_logic+1)^0,c
  6400   0022EE  2A04               	incf	??i2_gpio_pin_write_logic^0,f,c
  6401   0022F0  EF7C  F011         	goto	i2u453_44
  6402   0022F4                     i2u453_45:
  6403   0022F4  90D8               	bcf	status,0,c
  6404   0022F6  3605               	rlcf	(??i2_gpio_pin_write_logic+1)^0,f,c
  6405   0022F8                     i2u453_44:
  6406   0022F8  2E04               	decfsz	??i2_gpio_pin_write_logic^0,f,c
  6407   0022FA  EF7A  F011         	goto	i2u453_45
  6408   0022FE  5005               	movf	(??i2_gpio_pin_write_logic+1)^0,w,c
  6409   002300  0AFF               	xorlw	255
  6410   002302  6E06               	movwf	(??i2_gpio_pin_write_logic+2)^0,c
  6411   002304  C001  FFD9         	movff	i2gpio_pin_write_logic@pin_config,fsr2l
  6412   002308  C002  FFDA         	movff	i2gpio_pin_write_logic@pin_config+1,fsr2h
  6413   00230C  50DF               	movf	223,w,c
  6414   00230E  0B07               	andlw	7
  6415   002310  6E07               	movwf	(??i2_gpio_pin_write_logic+3)^0,c
  6416   002312  5007               	movf	(??i2_gpio_pin_write_logic+3)^0,w,c
  6417   002314  0D02               	mullw	2
  6418   002316  0EE5               	movlw	low _lat_register
  6419   002318  24F3               	addwf	243,w,c
  6420   00231A  6ED9               	movwf	fsr2l,c
  6421   00231C  0E00               	movlw	high _lat_register
  6422   00231E  20F4               	addwfc	prodh,w,c
  6423   002320  6EDA               	movwf	fsr2h,c
  6424   002322  CFDE F008          	movff	postinc2,??i2_gpio_pin_write_logic+4
  6425   002326  CFDD F009          	movff	postdec2,??i2_gpio_pin_write_logic+5
  6426   00232A  C008  FFD9         	movff	??i2_gpio_pin_write_logic+4,fsr2l
  6427   00232E  C009  FFDA         	movff	??i2_gpio_pin_write_logic+5,fsr2h
  6428   002332  5006               	movf	(??i2_gpio_pin_write_logic+2)^0,w,c
  6429   002334  16DF               	andwf	indf2,f,c
  6430                           
  6431                           ;MCAL_layer/GPIO/hal_gpio.c: 55:                 break;
  6432   002336  EFE0  F011         	goto	i2l686
  6433   00233A                     i2l5404:
  6434                           
  6435                           ;MCAL_layer/GPIO/hal_gpio.c: 57:                 (*lat_register[pin_config->port] |= ((u
      +                          int8) 1 << pin_config->pin));
  6436   00233A  C001  FFD9         	movff	i2gpio_pin_write_logic@pin_config,fsr2l
  6437   00233E  C002  FFDA         	movff	i2gpio_pin_write_logic@pin_config+1,fsr2h
  6438   002342  30DF               	rrcf	223,w,c
  6439   002344  32E8               	rrcf	wreg,f,c
  6440   002346  32E8               	rrcf	wreg,f,c
  6441   002348  0B07               	andlw	7
  6442   00234A  6E04               	movwf	??i2_gpio_pin_write_logic^0,c
  6443   00234C  0E01               	movlw	1
  6444   00234E  6E05               	movwf	(??i2_gpio_pin_write_logic+1)^0,c
  6445   002350  2A04               	incf	??i2_gpio_pin_write_logic^0,f,c
  6446   002352  EFAD  F011         	goto	i2u454_44
  6447   002356                     i2u454_45:
  6448   002356  90D8               	bcf	status,0,c
  6449   002358  3605               	rlcf	(??i2_gpio_pin_write_logic+1)^0,f,c
  6450   00235A                     i2u454_44:
  6451   00235A  2E04               	decfsz	??i2_gpio_pin_write_logic^0,f,c
  6452   00235C  EFAB  F011         	goto	i2u454_45
  6453   002360  C001  FFD9         	movff	i2gpio_pin_write_logic@pin_config,fsr2l
  6454   002364  C002  FFDA         	movff	i2gpio_pin_write_logic@pin_config+1,fsr2h
  6455   002368  50DF               	movf	223,w,c
  6456   00236A  0B07               	andlw	7
  6457   00236C  6E06               	movwf	(??i2_gpio_pin_write_logic+2)^0,c
  6458   00236E  5006               	movf	(??i2_gpio_pin_write_logic+2)^0,w,c
  6459   002370  0D02               	mullw	2
  6460   002372  0EE5               	movlw	low _lat_register
  6461   002374  24F3               	addwf	243,w,c
  6462   002376  6ED9               	movwf	fsr2l,c
  6463   002378  0E00               	movlw	high _lat_register
  6464   00237A  20F4               	addwfc	prodh,w,c
  6465   00237C  6EDA               	movwf	fsr2h,c
  6466   00237E  CFDE F007          	movff	postinc2,??i2_gpio_pin_write_logic+3
  6467   002382  CFDD F008          	movff	postdec2,??i2_gpio_pin_write_logic+4
  6468   002386  C007  FFD9         	movff	??i2_gpio_pin_write_logic+3,fsr2l
  6469   00238A  C008  FFDA         	movff	??i2_gpio_pin_write_logic+4,fsr2h
  6470   00238E  5005               	movf	(??i2_gpio_pin_write_logic+1)^0,w,c
  6471   002390  12DF               	iorwf	indf2,f,c
  6472                           
  6473                           ;MCAL_layer/GPIO/hal_gpio.c: 58:                 break;
  6474   002392  EFE0  F011         	goto	i2l686
  6475   002396                     i2l5408:
  6476   002396  5003               	movf	i2gpio_pin_write_logic@logic^0,w,c
  6477   002398  6E04               	movwf	??i2_gpio_pin_write_logic^0,c
  6478   00239A  6A05               	clrf	(??i2_gpio_pin_write_logic+1)^0,c
  6479                           
  6480                           ; Switch on 2 bytes has been partitioned into a top level switch of size 1, and 1 sub-sw
      +                          itches
  6481                           ; Switch size 1, requested type "simple"
  6482                           ; Number of cases is 1, Range of values is 0 to 0
  6483                           ; switch strategies available:
  6484                           ; Name         Instructions Cycles
  6485                           ; simple_byte            4     3 (average)
  6486                           ;	Chosen strategy is simple_byte
  6487   00239C  5005               	movf	(??i2_gpio_pin_write_logic+1)^0,w,c
  6488   00239E  0A00               	xorlw	0	; case 0
  6489   0023A0  B4D8               	btfsc	status,2,c
  6490   0023A2  EFD5  F011         	goto	i2l8676
  6491   0023A6  EF6A  F011         	goto	i2l5400
  6492   0023AA                     i2l8676:
  6493                           
  6494                           ; Switch size 1, requested type "simple"
  6495                           ; Number of cases is 2, Range of values is 0 to 1
  6496                           ; switch strategies available:
  6497                           ; Name         Instructions Cycles
  6498                           ; simple_byte            7     4 (average)
  6499                           ;	Chosen strategy is simple_byte
  6500   0023AA  5004               	movf	??i2_gpio_pin_write_logic^0,w,c
  6501   0023AC  0A00               	xorlw	0	; case 0
  6502   0023AE  B4D8               	btfsc	status,2,c
  6503   0023B0  EF6C  F011         	goto	i2l5402
  6504   0023B4  0A01               	xorlw	1	; case 1
  6505   0023B6  B4D8               	btfsc	status,2,c
  6506   0023B8  EF9D  F011         	goto	i2l5404
  6507   0023BC  EF6A  F011         	goto	i2l5400
  6508   0023C0                     i2l686:
  6509   0023C0  0012               	return		;funcret
  6510   0023C2                     __end_ofi2_gpio_pin_write_logic:
  6511                           	callstack 0
  6512                           
  6513 ;; *************** function _MSSP_I2C_ISR *****************
  6514 ;; Defined at:
  6515 ;;		line 249 in file "MCAL_layer/I2C/hal_i2c.c"
  6516 ;; Parameters:    Size  Location     Type
  6517 ;;		None
  6518 ;; Auto vars:     Size  Location     Type
  6519 ;;		None
  6520 ;; Return value:  Size  Location     Type
  6521 ;;                  1    wreg      void 
  6522 ;; Registers used:
  6523 ;;		wreg, status,2, status,0, pcl, pclath, pclatu, tosl, cstack
  6524 ;; Tracked objects:
  6525 ;;		On entry : 0/0
  6526 ;;		On exit  : 0/0
  6527 ;;		Unchanged: 0/0
  6528 ;; Data sizes:     COMRAM   BANK0   BANK1   BANK2   BANK3   BANK4   BANK5   BANK6   BANK7   BANK8   BANK9  BANK10  BANK1
      +1  BANK12  BANK13  BANK14  BANK15
  6529 ;;      Params:         0       0       0       0       0       0       0       0       0       0       0       0       
      +0       0       0       0       0
  6530 ;;      Locals:         0       0       0       0       0       0       0       0       0       0       0       0       
      +0       0       0       0       0
  6531 ;;      Temps:          0       0       0       0       0       0       0       0       0       0       0       0       
      +0       0       0       0       0
  6532 ;;      Totals:         0       0       0       0       0       0       0       0       0       0       0       0       
      +0       0       0       0       0
  6533 ;;Total ram usage:        0 bytes
  6534 ;; Hardware stack levels used: 1
  6535 ;; Hardware stack levels required when called: 1
  6536 ;; This function calls:
  6537 ;;		NULL
  6538 ;;		_MSSP_I2C_DefaultInterruptHandler
  6539 ;; This function is called by:
  6540 ;;		_interruptManger
  6541 ;; This function uses a non-reentrant model
  6542 ;;
  6543                           
  6544                           	psect	text32
  6545   002E9A                     __ptext32:
  6546                           	callstack 0
  6547   002E9A                     _MSSP_I2C_ISR:
  6548                           	callstack 25
  6549   002E9A                     
  6550                           ;MCAL_layer/I2C/hal_i2c.c: 251:     (PIR1bits.SSPIF= 0);
  6551   002E9A  969E               	bcf	158,3,c	;volatile
  6552   002E9C                     
  6553                           ;MCAL_layer/I2C/hal_i2c.c: 252:     if(I2C_DefaultInterruptHandler)
  6554   002E9C  0100               	movlb	0	; () banked
  6555   002E9E  51C2               	movf	_I2C_DefaultInterruptHandler& (0+255),w,b
  6556   002EA0  11C3               	iorwf	(_I2C_DefaultInterruptHandler+1)& (0+255),w,b
  6557   002EA2  B4D8               	btfsc	status,2,c
  6558   002EA4  EF56  F017         	goto	i2u592_41
  6559   002EA8  EF58  F017         	goto	i2u592_40
  6560   002EAC                     i2u592_41:
  6561   002EAC  EF64  F017         	goto	i2l851
  6562   002EB0                     i2u592_40:
  6563   002EB0                     
  6564                           ; BSR set to: 0
  6565                           ;MCAL_layer/I2C/hal_i2c.c: 253:     {;MCAL_layer/I2C/hal_i2c.c: 254:         I2C_Default
      +                          InterruptHandler();
  6566   002EB0  D802               	call	i2u593_48
  6567   002EB2  EF64  F017         	goto	i2u593_49
  6568   002EB6                     i2u593_48:
  6569   002EB6  0005               	push	
  6570   002EB8  6EFA               	movwf	pclath,c
  6571   002EBA  51C2               	movf	_I2C_DefaultInterruptHandler& (0+255),w,b
  6572   002EBC  6EFD               	movwf	tosl,c
  6573   002EBE  51C3               	movf	(_I2C_DefaultInterruptHandler+1)& (0+255),w,b
  6574   002EC0  6EFE               	movwf	tosh,c
  6575   002EC2  6AFF               	clrf	tosu,c
  6576   002EC4  50FA               	movf	pclath,w,c
  6577   002EC6  0012               	return		;indir
  6578   002EC8                     i2u593_49:
  6579   002EC8                     i2l851:
  6580   002EC8  0012               	return		;funcret
  6581   002ECA                     __end_of_MSSP_I2C_ISR:
  6582                           	callstack 0
  6583                           
  6584 ;; *************** function _MSSP_I2C_DefaultInterruptHandler *****************
  6585 ;; Defined at:
  6586 ;;		line 24 in file "Embe.c"
  6587 ;; Parameters:    Size  Location     Type
  6588 ;;		None
  6589 ;; Auto vars:     Size  Location     Type
  6590 ;;  buffer          1    0        unsigned char 
  6591 ;; Return value:  Size  Location     Type
  6592 ;;                  1    wreg      void 
  6593 ;; Registers used:
  6594 ;;		wreg
  6595 ;; Tracked objects:
  6596 ;;		On entry : 0/0
  6597 ;;		On exit  : 0/0
  6598 ;;		Unchanged: 0/0
  6599 ;; Data sizes:     COMRAM   BANK0   BANK1   BANK2   BANK3   BANK4   BANK5   BANK6   BANK7   BANK8   BANK9  BANK10  BANK1
      +1  BANK12  BANK13  BANK14  BANK15
  6600 ;;      Params:         0       0       0       0       0       0       0       0       0       0       0       0       
      +0       0       0       0       0
  6601 ;;      Locals:         0       0       0       0       0       0       0       0       0       0       0       0       
      +0       0       0       0       0
  6602 ;;      Temps:          0       0       0       0       0       0       0       0       0       0       0       0       
      +0       0       0       0       0
  6603 ;;      Totals:         0       0       0       0       0       0       0       0       0       0       0       0       
      +0       0       0       0       0
  6604 ;;Total ram usage:        0 bytes
  6605 ;; Hardware stack levels used: 1
  6606 ;; This function calls:
  6607 ;;		Nothing
  6608 ;; This function is called by:
  6609 ;;		_main
  6610 ;;		_MSSP_I2C_ISR
  6611 ;; This function uses a non-reentrant model
  6612 ;;
  6613                           
  6614                           	psect	text33
  6615   002DBA                     __ptext33:
  6616                           	callstack 0
  6617   002DBA                     _MSSP_I2C_DefaultInterruptHandler:
  6618                           	callstack 25
  6619   002DBA                     
  6620                           ;Embe.c: 26:    (SSPCON1bits.CKP = 0);
  6621   002DBA  98C6               	bcf	198,4,c	;volatile
  6622                           
  6623                           ;Embe.c: 27:    if(SSPSTATbits.R_nW ==0 && SSPSTATbits.D_nA == 0)
  6624   002DBC  B4C7               	btfsc	199,2,c	;volatile
  6625   002DBE  EFE3  F016         	goto	i2u484_41
  6626   002DC2  EFE5  F016         	goto	i2u484_40
  6627   002DC6                     i2u484_41:
  6628   002DC6  EFF8  F016         	goto	i2l1524
  6629   002DCA                     i2u484_40:
  6630   002DCA  BAC7               	btfsc	199,5,c	;volatile
  6631   002DCC  EFEA  F016         	goto	i2u485_41
  6632   002DD0  EFEC  F016         	goto	i2u485_40
  6633   002DD4                     i2u485_41:
  6634   002DD4  EFF8  F016         	goto	i2l1524
  6635   002DD8                     i2u485_40:
  6636   002DD8  50C9               	movf	201,w,c	;volatile
  6637   002DDA                     i2l1525:
  6638   002DDA  A0C7               	btfss	199,0,c	;volatile
  6639   002DDC  EFF2  F016         	goto	i2u486_41
  6640   002DE0  EFF4  F016         	goto	i2u486_40
  6641   002DE4                     i2u486_41:
  6642   002DE4  EFED  F016         	goto	i2l1525
  6643   002DE8                     i2u486_40:
  6644   002DE8                     
  6645                           ;Embe.c: 31:        slave_rec_data = SSPBUF ;
  6646   002DE8  CFC9 F04F          	movff	4041,_slave_rec_data	;volatile
  6647                           
  6648                           ;Embe.c: 32:    }
  6649   002DEC  EFF9  F016         	goto	i2l1528
  6650   002DF0                     i2l1524:
  6651   002DF0  50C7               	movf	199,w,c	;volatile
  6652   002DF2                     i2l1528:
  6653                           
  6654                           ;Embe.c: 37:    (SSPCON1bits.CKP = 1);
  6655   002DF2  88C6               	bsf	198,4,c	;volatile
  6656   002DF4  0012               	return		;funcret
  6657   002DF6                     __end_of_MSSP_I2C_DefaultInterruptHandler:
  6658                           	callstack 0
  6659                           
  6660 ;; *************** function _MSSP_I2C_BUSC_ISR *****************
  6661 ;; Defined at:
  6662 ;;		line 259 in file "MCAL_layer/I2C/hal_i2c.c"
  6663 ;; Parameters:    Size  Location     Type
  6664 ;;		None
  6665 ;; Auto vars:     Size  Location     Type
  6666 ;;		None
  6667 ;; Return value:  Size  Location     Type
  6668 ;;                  1    wreg      void 
  6669 ;; Registers used:
  6670 ;;		None
  6671 ;; Tracked objects:
  6672 ;;		On entry : 0/0
  6673 ;;		On exit  : 0/0
  6674 ;;		Unchanged: 0/0
  6675 ;; Data sizes:     COMRAM   BANK0   BANK1   BANK2   BANK3   BANK4   BANK5   BANK6   BANK7   BANK8   BANK9  BANK10  BANK1
      +1  BANK12  BANK13  BANK14  BANK15
  6676 ;;      Params:         0       0       0       0       0       0       0       0       0       0       0       0       
      +0       0       0       0       0
  6677 ;;      Locals:         0       0       0       0       0       0       0       0       0       0       0       0       
      +0       0       0       0       0
  6678 ;;      Temps:          0       0       0       0       0       0       0       0       0       0       0       0       
      +0       0       0       0       0
  6679 ;;      Totals:         0       0       0       0       0       0       0       0       0       0       0       0       
      +0       0       0       0       0
  6680 ;;Total ram usage:        0 bytes
  6681 ;; Hardware stack levels used: 1
  6682 ;; This function calls:
  6683 ;;		Nothing
  6684 ;; This function is called by:
  6685 ;;		_interruptManger
  6686 ;; This function uses a non-reentrant model
  6687 ;;
  6688                           
  6689                           	psect	text34
  6690   00302E                     __ptext34:
  6691                           	callstack 0
  6692   00302E                     _MSSP_I2C_BUSC_ISR:
  6693                           	callstack 26
  6694   00302E                     
  6695                           ;MCAL_layer/I2C/hal_i2c.c: 261:     (PIR2bits.BCLIF= 0);
  6696   00302E  96A1               	bcf	161,3,c	;volatile
  6697   003030  0012               	return		;funcret
  6698   003032                     __end_of_MSSP_I2C_BUSC_ISR:
  6699                           	callstack 0
  6700                           
  6701 ;; *************** function _INT1_ISR *****************
  6702 ;; Defined at:
  6703 ;;		line 90 in file "MCAL_layer/Interrupt/mcal_external_interrupt.c"
  6704 ;; Parameters:    Size  Location     Type
  6705 ;;		None
  6706 ;; Auto vars:     Size  Location     Type
  6707 ;;		None
  6708 ;; Return value:  Size  Location     Type
  6709 ;;                  1    wreg      void 
  6710 ;; Registers used:
  6711 ;;		wreg, fsr2l, fsr2h, status,2, status,0, pcl, pclath, pclatu, tosl, prodl, prodh, cstack
  6712 ;; Tracked objects:
  6713 ;;		On entry : 0/0
  6714 ;;		On exit  : 0/0
  6715 ;;		Unchanged: 0/0
  6716 ;; Data sizes:     COMRAM   BANK0   BANK1   BANK2   BANK3   BANK4   BANK5   BANK6   BANK7   BANK8   BANK9  BANK10  BANK1
      +1  BANK12  BANK13  BANK14  BANK15
  6717 ;;      Params:         0       0       0       0       0       0       0       0       0       0       0       0       
      +0       0       0       0       0
  6718 ;;      Locals:         0       0       0       0       0       0       0       0       0       0       0       0       
      +0       0       0       0       0
  6719 ;;      Temps:          0       0       0       0       0       0       0       0       0       0       0       0       
      +0       0       0       0       0
  6720 ;;      Totals:         0       0       0       0       0       0       0       0       0       0       0       0       
      +0       0       0       0       0
  6721 ;;Total ram usage:        0 bytes
  6722 ;; Hardware stack levels used: 1
  6723 ;; Hardware stack levels required when called: 3
  6724 ;; This function calls:
  6725 ;;		NULL
  6726 ;;		_APP_ISR
  6727 ;; This function is called by:
  6728 ;;		_interruptManger
  6729 ;; This function uses a non-reentrant model
  6730 ;;
  6731                           
  6732                           	psect	text35
  6733   002ECA                     __ptext35:
  6734                           	callstack 0
  6735   002ECA                     _INT1_ISR:
  6736                           	callstack 23
  6737   002ECA                     
  6738                           ;MCAL_layer/Interrupt/mcal_external_interrupt.c: 93:     (INTCON3bits.INT1IF = 0);
  6739   002ECA  90F0               	bcf	240,0,c	;volatile
  6740   002ECC                     
  6741                           ;MCAL_layer/Interrupt/mcal_external_interrupt.c: 94:    if(INT1_InterruptHandler)
  6742   002ECC  0100               	movlb	0	; () banked
  6743   002ECE  51BC               	movf	_INT1_InterruptHandler& (0+255),w,b
  6744   002ED0  11BD               	iorwf	(_INT1_InterruptHandler+1)& (0+255),w,b
  6745   002ED2  B4D8               	btfsc	status,2,c
  6746   002ED4  EF6E  F017         	goto	i2u596_41
  6747   002ED8  EF70  F017         	goto	i2u596_40
  6748   002EDC                     i2u596_41:
  6749   002EDC  EF7C  F017         	goto	i2l1018
  6750   002EE0                     i2u596_40:
  6751   002EE0                     
  6752                           ; BSR set to: 0
  6753                           ;MCAL_layer/Interrupt/mcal_external_interrupt.c: 95:     {;MCAL_layer/Interrupt/mcal_ext
      +                          ernal_interrupt.c: 96:         INT1_InterruptHandler();
  6754   002EE0  D802               	call	i2u597_48
  6755   002EE2  EF7C  F017         	goto	i2u597_49
  6756   002EE6                     i2u597_48:
  6757   002EE6  0005               	push	
  6758   002EE8  6EFA               	movwf	pclath,c
  6759   002EEA  51BC               	movf	_INT1_InterruptHandler& (0+255),w,b
  6760   002EEC  6EFD               	movwf	tosl,c
  6761   002EEE  51BD               	movf	(_INT1_InterruptHandler+1)& (0+255),w,b
  6762   002EF0  6EFE               	movwf	tosh,c
  6763   002EF2  6AFF               	clrf	tosu,c
  6764   002EF4  50FA               	movf	pclath,w,c
  6765   002EF6  0012               	return		;indir
  6766   002EF8                     i2u597_49:
  6767   002EF8                     i2l1018:
  6768   002EF8  0012               	return		;funcret
  6769   002EFA                     __end_of_INT1_ISR:
  6770                           	callstack 0
  6771                           
  6772 ;; *************** function _INT0_ISR *****************
  6773 ;; Defined at:
  6774 ;;		line 70 in file "MCAL_layer/Interrupt/mcal_external_interrupt.c"
  6775 ;; Parameters:    Size  Location     Type
  6776 ;;		None
  6777 ;; Auto vars:     Size  Location     Type
  6778 ;;		None
  6779 ;; Return value:  Size  Location     Type
  6780 ;;                  1    wreg      void 
  6781 ;; Registers used:
  6782 ;;		wreg, fsr2l, fsr2h, status,2, status,0, pcl, pclath, pclatu, tosl, prodl, prodh, cstack
  6783 ;; Tracked objects:
  6784 ;;		On entry : 0/0
  6785 ;;		On exit  : 0/0
  6786 ;;		Unchanged: 0/0
  6787 ;; Data sizes:     COMRAM   BANK0   BANK1   BANK2   BANK3   BANK4   BANK5   BANK6   BANK7   BANK8   BANK9  BANK10  BANK1
      +1  BANK12  BANK13  BANK14  BANK15
  6788 ;;      Params:         0       0       0       0       0       0       0       0       0       0       0       0       
      +0       0       0       0       0
  6789 ;;      Locals:         0       0       0       0       0       0       0       0       0       0       0       0       
      +0       0       0       0       0
  6790 ;;      Temps:          0       0       0       0       0       0       0       0       0       0       0       0       
      +0       0       0       0       0
  6791 ;;      Totals:         0       0       0       0       0       0       0       0       0       0       0       0       
      +0       0       0       0       0
  6792 ;;Total ram usage:        0 bytes
  6793 ;; Hardware stack levels used: 1
  6794 ;; Hardware stack levels required when called: 3
  6795 ;; This function calls:
  6796 ;;		NULL
  6797 ;;		_APP_ISR
  6798 ;; This function is called by:
  6799 ;;		_interruptManger
  6800 ;; This function uses a non-reentrant model
  6801 ;;
  6802                           
  6803                           	psect	text36
  6804   002EFA                     __ptext36:
  6805                           	callstack 0
  6806   002EFA                     _INT0_ISR:
  6807                           	callstack 23
  6808   002EFA                     
  6809                           ;MCAL_layer/Interrupt/mcal_external_interrupt.c: 72:     (INTCONbits.INT0IF = 0);
  6810   002EFA  92F2               	bcf	242,1,c	;volatile
  6811   002EFC                     
  6812                           ;MCAL_layer/Interrupt/mcal_external_interrupt.c: 75:     if(INT0_InterruptHandler)
  6813   002EFC  0100               	movlb	0	; () banked
  6814   002EFE  51BE               	movf	_INT0_InterruptHandler& (0+255),w,b
  6815   002F00  11BF               	iorwf	(_INT0_InterruptHandler+1)& (0+255),w,b
  6816   002F02  B4D8               	btfsc	status,2,c
  6817   002F04  EF86  F017         	goto	i2u594_41
  6818   002F08  EF88  F017         	goto	i2u594_40
  6819   002F0C                     i2u594_41:
  6820   002F0C  EF94  F017         	goto	i2l1010
  6821   002F10                     i2u594_40:
  6822   002F10                     
  6823                           ; BSR set to: 0
  6824                           ;MCAL_layer/Interrupt/mcal_external_interrupt.c: 76:     {;MCAL_layer/Interrupt/mcal_ext
      +                          ernal_interrupt.c: 77:         INT0_InterruptHandler();
  6825   002F10  D802               	call	i2u595_48
  6826   002F12  EF94  F017         	goto	i2u595_49
  6827   002F16                     i2u595_48:
  6828   002F16  0005               	push	
  6829   002F18  6EFA               	movwf	pclath,c
  6830   002F1A  51BE               	movf	_INT0_InterruptHandler& (0+255),w,b
  6831   002F1C  6EFD               	movwf	tosl,c
  6832   002F1E  51BF               	movf	(_INT0_InterruptHandler+1)& (0+255),w,b
  6833   002F20  6EFE               	movwf	tosh,c
  6834   002F22  6AFF               	clrf	tosu,c
  6835   002F24  50FA               	movf	pclath,w,c
  6836   002F26  0012               	return		;indir
  6837   002F28                     i2u595_49:
  6838   002F28                     i2l1010:
  6839   002F28  0012               	return		;funcret
  6840   002F2A                     __end_of_INT0_ISR:
  6841                           	callstack 0
  6842                           
  6843 ;; *************** function _APP_ISR *****************
  6844 ;; Defined at:
  6845 ;;		line 422 in file "Embe_Initialization.c"
  6846 ;; Parameters:    Size  Location     Type
  6847 ;;		None
  6848 ;; Auto vars:     Size  Location     Type
  6849 ;;		None
  6850 ;; Return value:  Size  Location     Type
  6851 ;;                  1    wreg      void 
  6852 ;; Registers used:
  6853 ;;		wreg, fsr2l, fsr2h, status,2, status,0, prodl, prodh, cstack
  6854 ;; Tracked objects:
  6855 ;;		On entry : 0/0
  6856 ;;		On exit  : 0/0
  6857 ;;		Unchanged: 0/0
  6858 ;; Data sizes:     COMRAM   BANK0   BANK1   BANK2   BANK3   BANK4   BANK5   BANK6   BANK7   BANK8   BANK9  BANK10  BANK1
      +1  BANK12  BANK13  BANK14  BANK15
  6859 ;;      Params:         0       0       0       0       0       0       0       0       0       0       0       0       
      +0       0       0       0       0
  6860 ;;      Locals:         0       0       0       0       0       0       0       0       0       0       0       0       
      +0       0       0       0       0
  6861 ;;      Temps:          0       0       0       0       0       0       0       0       0       0       0       0       
      +0       0       0       0       0
  6862 ;;      Totals:         0       0       0       0       0       0       0       0       0       0       0       0       
      +0       0       0       0       0
  6863 ;;Total ram usage:        0 bytes
  6864 ;; Hardware stack levels used: 1
  6865 ;; Hardware stack levels required when called: 2
  6866 ;; This function calls:
  6867 ;;		_led_toggle
  6868 ;; This function is called by:
  6869 ;;		_INT0_ISR
  6870 ;;		_INT1_ISR
  6871 ;;		_INT2_ISR
  6872 ;; This function uses a non-reentrant model
  6873 ;;
  6874                           
  6875                           	psect	text37
  6876   002FF0                     __ptext37:
  6877                           	callstack 0
  6878   002FF0                     _APP_ISR:
  6879                           	callstack 23
  6880   002FF0                     
  6881                           ;Embe_Initialization.c: 424:    ret = led_toggle(&led_1);
  6882   002FF0  0E69               	movlw	low _led_1
  6883   002FF2  6E08               	movwf	led_toggle@led^0,c
  6884   002FF4  0E00               	movlw	high _led_1
  6885   002FF6  6E09               	movwf	(led_toggle@led+1)^0,c
  6886   002FF8  EC09  F016         	call	_led_toggle	;wreg free
  6887   002FFC  0100               	movlb	0	; () banked
  6888   002FFE  6FFF               	movwf	_ret& (0+255),b
  6889   003000                     
  6890                           ; BSR set to: 0
  6891   003000  0012               	return		;funcret
  6892   003002                     __end_of_APP_ISR:
  6893                           	callstack 0
  6894                           
  6895 ;; *************** function _led_toggle *****************
  6896 ;; Defined at:
  6897 ;;		line 61 in file "ECU_layer/LED/ecu_led.c"
  6898 ;; Parameters:    Size  Location     Type
  6899 ;;  led             2    7[COMRAM] PTR const struct .
  6900 ;;		 -> led_1(1), 
  6901 ;; Auto vars:     Size  Location     Type
  6902 ;;  config          1   11[COMRAM] struct .
  6903 ;;  ret             1   10[COMRAM] unsigned char 
  6904 ;; Return value:  Size  Location     Type
  6905 ;;                  1    wreg      unsigned char 
  6906 ;; Registers used:
  6907 ;;		wreg, fsr2l, fsr2h, status,2, status,0, prodl, prodh, cstack
  6908 ;; Tracked objects:
  6909 ;;		On entry : 0/0
  6910 ;;		On exit  : 0/0
  6911 ;;		Unchanged: 0/0
  6912 ;; Data sizes:     COMRAM   BANK0   BANK1   BANK2   BANK3   BANK4   BANK5   BANK6   BANK7   BANK8   BANK9  BANK10  BANK1
      +1  BANK12  BANK13  BANK14  BANK15
  6913 ;;      Params:         2       0       0       0       0       0       0       0       0       0       0       0       
      +0       0       0       0       0
  6914 ;;      Locals:         2       0       0       0       0       0       0       0       0       0       0       0       
      +0       0       0       0       0
  6915 ;;      Temps:          1       0       0       0       0       0       0       0       0       0       0       0       
      +0       0       0       0       0
  6916 ;;      Totals:         5       0       0       0       0       0       0       0       0       0       0       0       
      +0       0       0       0       0
  6917 ;;Total ram usage:        5 bytes
  6918 ;; Hardware stack levels used: 1
  6919 ;; Hardware stack levels required when called: 1
  6920 ;; This function calls:
  6921 ;;		_gpio_pin_toggle_logic
  6922 ;; This function is called by:
  6923 ;;		_APP_ISR
  6924 ;; This function uses a non-reentrant model
  6925 ;;
  6926                           
  6927                           	psect	text38
  6928   002C12                     __ptext38:
  6929                           	callstack 0
  6930   002C12                     _led_toggle:
  6931                           	callstack 23
  6932   002C12                     
  6933                           ;ECU_layer/LED/ecu_led.c: 62:     Std_ReturnType ret = (Std_ReturnType)0x01 ;
  6934   002C12  0E01               	movlw	1
  6935   002C14  6E0B               	movwf	led_toggle@ret^0,c
  6936   002C16                     
  6937                           ;ECU_layer/LED/ecu_led.c: 63:     if(((void*)0) == led)
  6938   002C16  5008               	movf	led_toggle@led^0,w,c
  6939   002C18  1009               	iorwf	(led_toggle@led+1)^0,w,c
  6940   002C1A  A4D8               	btfss	status,2,c
  6941   002C1C  EF12  F016         	goto	i2u465_41
  6942   002C20  EF14  F016         	goto	i2u465_40
  6943   002C24                     i2u465_41:
  6944   002C24  EF18  F016         	goto	i2l306
  6945   002C28                     i2u465_40:
  6946   002C28                     
  6947                           ;ECU_layer/LED/ecu_led.c: 64:     {;ECU_layer/LED/ecu_led.c: 65:         ret = (Std_Retu
      +                          rnType)0x00 ;
  6948   002C28  0E00               	movlw	0
  6949   002C2A  6E0B               	movwf	led_toggle@ret^0,c
  6950                           
  6951                           ;ECU_layer/LED/ecu_led.c: 66:     }
  6952   002C2C  EF45  F016         	goto	i2l5476
  6953   002C30                     i2l306:
  6954                           
  6955                           ;ECU_layer/LED/ecu_led.c: 68:     {;ECU_layer/LED/ecu_led.c: 69:         pin_config_t co
      +                          nfig = {
  6956   002C30  C054  F00C         	movff	led_toggle@F3031,led_toggle@config
  6957   002C34  C008  FFD9         	movff	led_toggle@led,fsr2l
  6958   002C38  C009  FFDA         	movff	led_toggle@led+1,fsr2h
  6959   002C3C  50DF               	movf	223,w,c
  6960   002C3E  0B0F               	andlw	15
  6961   002C40  6E0A               	movwf	??_led_toggle^0,c
  6962   002C42  500C               	movf	led_toggle@config^0,w,c
  6963   002C44  180A               	xorwf	??_led_toggle^0,w,c
  6964   002C46  0BF8               	andlw	-8
  6965   002C48  180A               	xorwf	??_led_toggle^0,w,c
  6966   002C4A  6E0C               	movwf	led_toggle@config^0,c
  6967   002C4C  C008  FFD9         	movff	led_toggle@led,fsr2l
  6968   002C50  C009  FFDA         	movff	led_toggle@led+1,fsr2h
  6969   002C54  38DF               	swapf	223,w,c
  6970   002C56  0B07               	andlw	7
  6971   002C58  6E0A               	movwf	??_led_toggle^0,c
  6972   002C5A  460A               	rlncf	??_led_toggle^0,f,c
  6973   002C5C  460A               	rlncf	??_led_toggle^0,f,c
  6974   002C5E  460A               	rlncf	??_led_toggle^0,f,c
  6975   002C60  500C               	movf	led_toggle@config^0,w,c
  6976   002C62  180A               	xorwf	??_led_toggle^0,w,c
  6977   002C64  0BC7               	andlw	-57
  6978   002C66  180A               	xorwf	??_led_toggle^0,w,c
  6979   002C68  6E0C               	movwf	led_toggle@config^0,c
  6980   002C6A  9C0C               	bcf	led_toggle@config^0,6,c
  6981   002C6C  C008  FFD9         	movff	led_toggle@led,fsr2l
  6982   002C70  C009  FFDA         	movff	led_toggle@led+1,fsr2h
  6983   002C74  AEDF               	btfss	indf2,7,c
  6984   002C76  D002               	bra	i2u466_45
  6985   002C78  8E0C               	bsf	led_toggle@config^0,7,c
  6986   002C7A  D001               	bra	i2u466_47
  6987   002C7C                     i2u466_45:
  6988   002C7C  9E0C               	bcf	led_toggle@config^0,7,c
  6989   002C7E                     i2u466_47:
  6990   002C7E                     
  6991                           ;ECU_layer/LED/ecu_led.c: 74:        gpio_pin_toggle_logic(&config);
  6992   002C7E  0E0C               	movlw	low led_toggle@config
  6993   002C80  6E01               	movwf	gpio_pin_toggle_logic@pin_config^0,c
  6994   002C82  0E00               	movlw	high led_toggle@config
  6995   002C84  6E02               	movwf	(gpio_pin_toggle_logic@pin_config+1)^0,c
  6996   002C86  ECB3  F012         	call	_gpio_pin_toggle_logic	;wreg free
  6997   002C8A                     i2l5476:
  6998                           
  6999                           ;ECU_layer/LED/ecu_led.c: 76:       return ret ;
  7000   002C8A  500B               	movf	led_toggle@ret^0,w,c
  7001   002C8C  0012               	return		;funcret
  7002   002C8E                     __end_of_led_toggle:
  7003                           	callstack 0
  7004                           
  7005 ;; *************** function _gpio_pin_toggle_logic *****************
  7006 ;; Defined at:
  7007 ;;		line 91 in file "MCAL_layer/GPIO/hal_gpio.c"
  7008 ;; Parameters:    Size  Location     Type
  7009 ;;  pin_config      2    0[COMRAM] PTR const struct .
  7010 ;;		 -> led_toggle@config(1), 
  7011 ;; Auto vars:     Size  Location     Type
  7012 ;;  ret             1    0        unsigned char 
  7013 ;; Return value:  Size  Location     Type
  7014 ;;                  1    wreg      unsigned char 
  7015 ;; Registers used:
  7016 ;;		wreg, fsr2l, fsr2h, status,2, status,0, prodl, prodh
  7017 ;; Tracked objects:
  7018 ;;		On entry : 0/0
  7019 ;;		On exit  : 0/0
  7020 ;;		Unchanged: 0/0
  7021 ;; Data sizes:     COMRAM   BANK0   BANK1   BANK2   BANK3   BANK4   BANK5   BANK6   BANK7   BANK8   BANK9  BANK10  BANK1
      +1  BANK12  BANK13  BANK14  BANK15
  7022 ;;      Params:         2       0       0       0       0       0       0       0       0       0       0       0       
      +0       0       0       0       0
  7023 ;;      Locals:         0       0       0       0       0       0       0       0       0       0       0       0       
      +0       0       0       0       0
  7024 ;;      Temps:          5       0       0       0       0       0       0       0       0       0       0       0       
      +0       0       0       0       0
  7025 ;;      Totals:         7       0       0       0       0       0       0       0       0       0       0       0       
      +0       0       0       0       0
  7026 ;;Total ram usage:        7 bytes
  7027 ;; Hardware stack levels used: 1
  7028 ;; This function calls:
  7029 ;;		Nothing
  7030 ;; This function is called by:
  7031 ;;		_led_toggle
  7032 ;; This function uses a non-reentrant model
  7033 ;;
  7034                           
  7035                           	psect	text39
  7036   002566                     __ptext39:
  7037                           	callstack 0
  7038   002566                     _gpio_pin_toggle_logic:
  7039                           	callstack 23
  7040   002566                     
  7041                           ;MCAL_layer/GPIO/hal_gpio.c: 93:     if(((void*)0) == pin_config || pin_config->pin > 8 
      +                          - 1)
  7042   002566  5001               	movf	gpio_pin_toggle_logic@pin_config^0,w,c
  7043   002568  1002               	iorwf	(gpio_pin_toggle_logic@pin_config+1)^0,w,c
  7044   00256A  B4D8               	btfsc	status,2,c
  7045   00256C  EFBA  F012         	goto	i2u448_41
  7046   002570  EFBC  F012         	goto	i2u448_40
  7047   002574                     i2u448_41:
  7048   002574  EFCD  F012         	goto	i2l5388
  7049   002578                     i2u448_40:
  7050   002578  C001  FFD9         	movff	gpio_pin_toggle_logic@pin_config,fsr2l
  7051   00257C  C002  FFDA         	movff	gpio_pin_toggle_logic@pin_config+1,fsr2h
  7052   002580  30DF               	rrcf	223,w,c
  7053   002582  32E8               	rrcf	wreg,f,c
  7054   002584  32E8               	rrcf	wreg,f,c
  7055   002586  0B07               	andlw	7
  7056   002588  6E03               	movwf	??_gpio_pin_toggle_logic^0,c
  7057   00258A  0E07               	movlw	7
  7058   00258C  6403               	cpfsgt	??_gpio_pin_toggle_logic^0,c
  7059   00258E  EFCB  F012         	goto	i2u449_41
  7060   002592  EFCD  F012         	goto	i2u449_40
  7061   002596                     i2u449_41:
  7062   002596  EFCF  F012         	goto	i2l5390
  7063   00259A                     i2u449_40:
  7064   00259A                     i2l5388:
  7065                           
  7066                           ;MCAL_layer/GPIO/hal_gpio.c: 96:     }
  7067   00259A  EFFB  F012         	goto	i2l707
  7068   00259E                     i2l5390:
  7069                           
  7070                           ;MCAL_layer/GPIO/hal_gpio.c: 98:     {;MCAL_layer/GPIO/hal_gpio.c: 99:         (*lat_reg
      +                          ister[pin_config->port] ^= ((uint8) 1 << pin_config->pin));
  7071   00259E  C001  FFD9         	movff	gpio_pin_toggle_logic@pin_config,fsr2l
  7072   0025A2  C002  FFDA         	movff	gpio_pin_toggle_logic@pin_config+1,fsr2h
  7073   0025A6  30DF               	rrcf	223,w,c
  7074   0025A8  32E8               	rrcf	wreg,f,c
  7075   0025AA  32E8               	rrcf	wreg,f,c
  7076   0025AC  0B07               	andlw	7
  7077   0025AE  6E03               	movwf	??_gpio_pin_toggle_logic^0,c
  7078   0025B0  0E01               	movlw	1
  7079   0025B2  6E04               	movwf	(??_gpio_pin_toggle_logic+1)^0,c
  7080   0025B4  2A03               	incf	??_gpio_pin_toggle_logic^0,f,c
  7081   0025B6  EFDF  F012         	goto	i2u450_44
  7082   0025BA                     i2u450_45:
  7083   0025BA  90D8               	bcf	status,0,c
  7084   0025BC  3604               	rlcf	(??_gpio_pin_toggle_logic+1)^0,f,c
  7085   0025BE                     i2u450_44:
  7086   0025BE  2E03               	decfsz	??_gpio_pin_toggle_logic^0,f,c
  7087   0025C0  EFDD  F012         	goto	i2u450_45
  7088   0025C4  C001  FFD9         	movff	gpio_pin_toggle_logic@pin_config,fsr2l
  7089   0025C8  C002  FFDA         	movff	gpio_pin_toggle_logic@pin_config+1,fsr2h
  7090   0025CC  50DF               	movf	223,w,c
  7091   0025CE  0B07               	andlw	7
  7092   0025D0  6E05               	movwf	(??_gpio_pin_toggle_logic+2)^0,c
  7093   0025D2  5005               	movf	(??_gpio_pin_toggle_logic+2)^0,w,c
  7094   0025D4  0D02               	mullw	2
  7095   0025D6  0EE5               	movlw	low _lat_register
  7096   0025D8  24F3               	addwf	243,w,c
  7097   0025DA  6ED9               	movwf	fsr2l,c
  7098   0025DC  0E00               	movlw	high _lat_register
  7099   0025DE  20F4               	addwfc	prodh,w,c
  7100   0025E0  6EDA               	movwf	fsr2h,c
  7101   0025E2  CFDE F006          	movff	postinc2,??_gpio_pin_toggle_logic+3
  7102   0025E6  CFDD F007          	movff	postdec2,??_gpio_pin_toggle_logic+4
  7103   0025EA  C006  FFD9         	movff	??_gpio_pin_toggle_logic+3,fsr2l
  7104   0025EE  C007  FFDA         	movff	??_gpio_pin_toggle_logic+4,fsr2h
  7105   0025F2  5004               	movf	(??_gpio_pin_toggle_logic+1)^0,w,c
  7106   0025F4  1ADF               	xorwf	indf2,f,c
  7107   0025F6                     i2l707:
  7108   0025F6  0012               	return		;funcret
  7109   0025F8                     __end_of_gpio_pin_toggle_logic:
  7110                           	callstack 0
  7111                           
  7112 ;; *************** function _CCP2_ISR *****************
  7113 ;; Defined at:
  7114 ;;		line 363 in file "MCAL_layer/CCP1/hal_ccp1.c"
  7115 ;; Parameters:    Size  Location     Type
  7116 ;;		None
  7117 ;; Auto vars:     Size  Location     Type
  7118 ;;		None
  7119 ;; Return value:  Size  Location     Type
  7120 ;;                  1    wreg      void 
  7121 ;; Registers used:
  7122 ;;		None
  7123 ;; Tracked objects:
  7124 ;;		On entry : 0/0
  7125 ;;		On exit  : 0/0
  7126 ;;		Unchanged: 0/0
  7127 ;; Data sizes:     COMRAM   BANK0   BANK1   BANK2   BANK3   BANK4   BANK5   BANK6   BANK7   BANK8   BANK9  BANK10  BANK1
      +1  BANK12  BANK13  BANK14  BANK15
  7128 ;;      Params:         0       0       0       0       0       0       0       0       0       0       0       0       
      +0       0       0       0       0
  7129 ;;      Locals:         0       0       0       0       0       0       0       0       0       0       0       0       
      +0       0       0       0       0
  7130 ;;      Temps:          0       0       0       0       0       0       0       0       0       0       0       0       
      +0       0       0       0       0
  7131 ;;      Totals:         0       0       0       0       0       0       0       0       0       0       0       0       
      +0       0       0       0       0
  7132 ;;Total ram usage:        0 bytes
  7133 ;; Hardware stack levels used: 1
  7134 ;; This function calls:
  7135 ;;		Nothing
  7136 ;; This function is called by:
  7137 ;;		_interruptManger
  7138 ;; This function uses a non-reentrant model
  7139 ;;
  7140                           
  7141                           	psect	text40
  7142   003032                     __ptext40:
  7143                           	callstack 0
  7144   003032                     _CCP2_ISR:
  7145                           	callstack 26
  7146   003032                     
  7147                           ;MCAL_layer/CCP1/hal_ccp1.c: 364:      (PIR2bits.CCP2IF= 0);
  7148   003032  90A1               	bcf	161,0,c	;volatile
  7149   003034  0012               	return		;funcret
  7150   003036                     __end_of_CCP2_ISR:
  7151                           	callstack 0
  7152                           
  7153 ;; *************** function _CCP1_ISR *****************
  7154 ;; Defined at:
  7155 ;;		line 355 in file "MCAL_layer/CCP1/hal_ccp1.c"
  7156 ;; Parameters:    Size  Location     Type
  7157 ;;		None
  7158 ;; Auto vars:     Size  Location     Type
  7159 ;;		None
  7160 ;; Return value:  Size  Location     Type
  7161 ;;                  1    wreg      void 
  7162 ;; Registers used:
  7163 ;;		wreg, fsr2l, fsr2h, status,2, status,0, pcl, pclath, pclatu, tosl, cstack
  7164 ;; Tracked objects:
  7165 ;;		On entry : 0/0
  7166 ;;		On exit  : 0/0
  7167 ;;		Unchanged: 0/0
  7168 ;; Data sizes:     COMRAM   BANK0   BANK1   BANK2   BANK3   BANK4   BANK5   BANK6   BANK7   BANK8   BANK9  BANK10  BANK1
      +1  BANK12  BANK13  BANK14  BANK15
  7169 ;;      Params:         0       0       0       0       0       0       0       0       0       0       0       0       
      +0       0       0       0       0
  7170 ;;      Locals:         0       0       0       0       0       0       0       0       0       0       0       0       
      +0       0       0       0       0
  7171 ;;      Temps:          0       0       0       0       0       0       0       0       0       0       0       0       
      +0       0       0       0       0
  7172 ;;      Totals:         0       0       0       0       0       0       0       0       0       0       0       0       
      +0       0       0       0       0
  7173 ;;Total ram usage:        0 bytes
  7174 ;; Hardware stack levels used: 1
  7175 ;; Hardware stack levels required when called: 2
  7176 ;; This function calls:
  7177 ;;		NULL
  7178 ;;		_Timer3_Interrupt_capture
  7179 ;;		_Timer3_Interrupt_compare
  7180 ;; This function is called by:
  7181 ;;		_interruptManger
  7182 ;; This function uses a non-reentrant model
  7183 ;;
  7184                           
  7185                           	psect	text41
  7186   002F2A                     __ptext41:
  7187                           	callstack 0
  7188   002F2A                     _CCP1_ISR:
  7189                           	callstack 24
  7190   002F2A                     
  7191                           ;MCAL_layer/CCP1/hal_ccp1.c: 356:      (PIR1bits.CCP1IF= 0);
  7192   002F2A  949E               	bcf	158,2,c	;volatile
  7193   002F2C                     
  7194                           ;MCAL_layer/CCP1/hal_ccp1.c: 358:     if(CCP1_InterruptHandler)
  7195   002F2C  0100               	movlb	0	; () banked
  7196   002F2E  51CC               	movf	_CCP1_InterruptHandler& (0+255),w,b
  7197   002F30  11CD               	iorwf	(_CCP1_InterruptHandler+1)& (0+255),w,b
  7198   002F32  B4D8               	btfsc	status,2,c
  7199   002F34  EF9E  F017         	goto	i2u581_41
  7200   002F38  EFA0  F017         	goto	i2u581_40
  7201   002F3C                     i2u581_41:
  7202   002F3C  EFAC  F017         	goto	i2l578
  7203   002F40                     i2u581_40:
  7204   002F40                     
  7205                           ; BSR set to: 0
  7206                           ;MCAL_layer/CCP1/hal_ccp1.c: 359:     {;MCAL_layer/CCP1/hal_ccp1.c: 360:         CCP1_In
      +                          terruptHandler();
  7207   002F40  D802               	call	i2u582_48
  7208   002F42  EFAC  F017         	goto	i2u582_49
  7209   002F46                     i2u582_48:
  7210   002F46  0005               	push	
  7211   002F48  6EFA               	movwf	pclath,c
  7212   002F4A  51CC               	movf	_CCP1_InterruptHandler& (0+255),w,b
  7213   002F4C  6EFD               	movwf	tosl,c
  7214   002F4E  51CD               	movf	(_CCP1_InterruptHandler+1)& (0+255),w,b
  7215   002F50  6EFE               	movwf	tosh,c
  7216   002F52  6AFF               	clrf	tosu,c
  7217   002F54  50FA               	movf	pclath,w,c
  7218   002F56  0012               	return		;indir
  7219   002F58                     i2u582_49:
  7220   002F58                     i2l578:
  7221   002F58  0012               	return		;funcret
  7222   002F5A                     __end_of_CCP1_ISR:
  7223                           	callstack 0
  7224                           
  7225 ;; *************** function _Timer3_Interrupt_capture *****************
  7226 ;; Defined at:
  7227 ;;		line 406 in file "Embe_Initialization.c"
  7228 ;; Parameters:    Size  Location     Type
  7229 ;;		None
  7230 ;; Auto vars:     Size  Location     Type
  7231 ;;		None
  7232 ;; Return value:  Size  Location     Type
  7233 ;;                  1    wreg      void 
  7234 ;; Registers used:
  7235 ;;		status,2, status,0
  7236 ;; Tracked objects:
  7237 ;;		On entry : 0/0
  7238 ;;		On exit  : 0/0
  7239 ;;		Unchanged: 0/0
  7240 ;; Data sizes:     COMRAM   BANK0   BANK1   BANK2   BANK3   BANK4   BANK5   BANK6   BANK7   BANK8   BANK9  BANK10  BANK1
      +1  BANK12  BANK13  BANK14  BANK15
  7241 ;;      Params:         0       0       0       0       0       0       0       0       0       0       0       0       
      +0       0       0       0       0
  7242 ;;      Locals:         0       0       0       0       0       0       0       0       0       0       0       0       
      +0       0       0       0       0
  7243 ;;      Temps:          0       0       0       0       0       0       0       0       0       0       0       0       
      +0       0       0       0       0
  7244 ;;      Totals:         0       0       0       0       0       0       0       0       0       0       0       0       
      +0       0       0       0       0
  7245 ;;Total ram usage:        0 bytes
  7246 ;; Hardware stack levels used: 1
  7247 ;; This function calls:
  7248 ;;		Nothing
  7249 ;; This function is called by:
  7250 ;;		_CCP1_ISR
  7251 ;;		_TM3_ISR
  7252 ;; This function uses a non-reentrant model
  7253 ;;
  7254                           
  7255                           	psect	text42
  7256   00301C                     __ptext42:
  7257                           	callstack 0
  7258   00301C                     _Timer3_Interrupt_capture:
  7259                           	callstack 25
  7260   00301C                     
  7261                           ;Embe_Initialization.c: 408:      timer3_overflow++ ;
  7262   00301C  0100               	movlb	0	; () banked
  7263   00301E  4B82               	infsnz	_timer3_overflow& (0+255),f,b	;volatile
  7264   003020  2B83               	incf	(_timer3_overflow+1)& (0+255),f,b	;volatile
  7265   003022                     
  7266                           ; BSR set to: 0
  7267   003022  0012               	return		;funcret
  7268   003024                     __end_of_Timer3_Interrupt_capture:
  7269                           	callstack 0
  7270                           
  7271 ;; *************** function _Timer3_Interrupt_compare *****************
  7272 ;; Defined at:
  7273 ;;		line 369 in file "Embe_Initialization.c"
  7274 ;; Parameters:    Size  Location     Type
  7275 ;;		None
  7276 ;; Auto vars:     Size  Location     Type
  7277 ;;		None
  7278 ;; Return value:  Size  Location     Type
  7279 ;;                  1    wreg      void 
  7280 ;; Registers used:
  7281 ;;		wreg, fsr2l, fsr2h, status,2, status,0, cstack
  7282 ;; Tracked objects:
  7283 ;;		On entry : 0/0
  7284 ;;		On exit  : 0/0
  7285 ;;		Unchanged: 0/0
  7286 ;; Data sizes:     COMRAM   BANK0   BANK1   BANK2   BANK3   BANK4   BANK5   BANK6   BANK7   BANK8   BANK9  BANK10  BANK1
      +1  BANK12  BANK13  BANK14  BANK15
  7287 ;;      Params:         0       0       0       0       0       0       0       0       0       0       0       0       
      +0       0       0       0       0
  7288 ;;      Locals:         0       0       0       0       0       0       0       0       0       0       0       0       
      +0       0       0       0       0
  7289 ;;      Temps:          0       0       0       0       0       0       0       0       0       0       0       0       
      +0       0       0       0       0
  7290 ;;      Totals:         0       0       0       0       0       0       0       0       0       0       0       0       
      +0       0       0       0       0
  7291 ;;Total ram usage:        0 bytes
  7292 ;; Hardware stack levels used: 1
  7293 ;; Hardware stack levels required when called: 1
  7294 ;; This function calls:
  7295 ;;		_Timer3_Write_Value
  7296 ;;		_ccp_compare_mode_write_value
  7297 ;; This function is called by:
  7298 ;;		_CCP1_ISR
  7299 ;; This function uses a non-reentrant model
  7300 ;;
  7301                           
  7302                           	psect	text43
  7303   002686                     __ptext43:
  7304                           	callstack 0
  7305   002686                     _Timer3_Interrupt_compare:
  7306                           	callstack 24
  7307   002686                     
  7308                           ;Embe_Initialization.c: 371:      ccp_callback ++ ;
  7309   002686  2A48               	incf	_ccp_callback^0,f,c	;volatile
  7310   002688                     
  7311                           ;Embe_Initialization.c: 372:      ret = Timer3_Write_Value(&timer3_compare , 0);
  7312   002688  0E75               	movlw	low _timer3_compare
  7313   00268A  6E01               	movwf	Timer3_Write_Value@timer^0,c
  7314   00268C  0E01               	movlw	high _timer3_compare
  7315   00268E  6E02               	movwf	(Timer3_Write_Value@timer+1)^0,c
  7316   002690  0E00               	movlw	0
  7317   002692  6E04               	movwf	(Timer3_Write_Value@value+1)^0,c
  7318   002694  0E00               	movlw	0
  7319   002696  6E03               	movwf	Timer3_Write_Value@value^0,c
  7320   002698  ECC4  F017         	call	_Timer3_Write_Value	;wreg free
  7321   00269C  0100               	movlb	0	; () banked
  7322   00269E  6FFF               	movwf	_ret& (0+255),b
  7323   0026A0                     
  7324                           ; BSR set to: 0
  7325                           ;Embe_Initialization.c: 373:      if(ccp_callback==1)
  7326   0026A0  0448               	decf	_ccp_callback^0,w,c	;volatile
  7327   0026A2  A4D8               	btfss	status,2,c
  7328   0026A4  EF56  F013         	goto	i2u487_41
  7329   0026A8  EF58  F013         	goto	i2u487_40
  7330   0026AC                     i2u487_41:
  7331   0026AC  EF6A  F013         	goto	i2l5664
  7332   0026B0                     i2u487_40:
  7333   0026B0                     
  7334                           ; BSR set to: 0
  7335                           ;Embe_Initialization.c: 374:      {;Embe_Initialization.c: 375:            ret = ccp_com
      +                          pare_mode_write_value(&ccp_compare ,12500);
  7336   0026B0  0E6A               	movlw	low _ccp_compare
  7337   0026B2  6E01               	movwf	ccp_compare_mode_write_value@ccp^0,c
  7338   0026B4  0E01               	movlw	high _ccp_compare
  7339   0026B6  6E02               	movwf	(ccp_compare_mode_write_value@ccp+1)^0,c
  7340   0026B8  0E30               	movlw	48
  7341   0026BA  6E04               	movwf	(ccp_compare_mode_write_value@compare_value+1)^0,c
  7342   0026BC  0ED4               	movlw	212
  7343   0026BE  6E03               	movwf	ccp_compare_mode_write_value@compare_value^0,c
  7344   0026C0  EC47  F016         	call	_ccp_compare_mode_write_value	;wreg free
  7345   0026C4  0100               	movlb	0	; () banked
  7346   0026C6  6FFF               	movwf	_ret& (0+255),b
  7347   0026C8                     
  7348                           ; BSR set to: 0
  7349                           ;Embe_Initialization.c: 376:            (CCP1CONbits.CCP1M=(uint8)0x09);
  7350   0026C8  50BD               	movf	189,w,c	;volatile
  7351   0026CA  0BF0               	andlw	-16
  7352   0026CC  0909               	iorlw	9
  7353   0026CE  6EBD               	movwf	189,c	;volatile
  7354                           
  7355                           ;Embe_Initialization.c: 378:      }
  7356   0026D0  EF85  F013         	goto	i2l1684
  7357   0026D4                     i2l5664:
  7358                           
  7359                           ; BSR set to: 0
  7360   0026D4  0E02               	movlw	2
  7361   0026D6  1848               	xorwf	_ccp_callback^0,w,c	;volatile
  7362   0026D8  A4D8               	btfss	status,2,c
  7363   0026DA  EF71  F013         	goto	i2u488_41
  7364   0026DE  EF73  F013         	goto	i2u488_40
  7365   0026E2                     i2u488_41:
  7366   0026E2  EF85  F013         	goto	i2l1684
  7367   0026E6                     i2u488_40:
  7368   0026E6                     
  7369                           ; BSR set to: 0
  7370                           ;Embe_Initialization.c: 380:      {;Embe_Initialization.c: 381:            ret = ccp_com
      +                          pare_mode_write_value(&ccp_compare ,37500);
  7371   0026E6  0E6A               	movlw	low _ccp_compare
  7372   0026E8  6E01               	movwf	ccp_compare_mode_write_value@ccp^0,c
  7373   0026EA  0E01               	movlw	high _ccp_compare
  7374   0026EC  6E02               	movwf	(ccp_compare_mode_write_value@ccp+1)^0,c
  7375   0026EE  0E92               	movlw	146
  7376   0026F0  6E04               	movwf	(ccp_compare_mode_write_value@compare_value+1)^0,c
  7377   0026F2  0E7C               	movlw	124
  7378   0026F4  6E03               	movwf	ccp_compare_mode_write_value@compare_value^0,c
  7379   0026F6  EC47  F016         	call	_ccp_compare_mode_write_value	;wreg free
  7380   0026FA  0100               	movlb	0	; () banked
  7381   0026FC  6FFF               	movwf	_ret& (0+255),b
  7382   0026FE                     
  7383                           ; BSR set to: 0
  7384                           ;Embe_Initialization.c: 382:            (CCP1CONbits.CCP1M=(uint8) 0x08);
  7385   0026FE  50BD               	movf	189,w,c	;volatile
  7386   002700  0BF0               	andlw	-16
  7387   002702  0908               	iorlw	8
  7388   002704  6EBD               	movwf	189,c	;volatile
  7389   002706                     
  7390                           ; BSR set to: 0
  7391                           ;Embe_Initialization.c: 383:            ccp_callback = 0;
  7392   002706  0E00               	movlw	0
  7393   002708  6E48               	movwf	_ccp_callback^0,c	;volatile
  7394   00270A                     i2l1684:
  7395                           
  7396                           ; BSR set to: 0
  7397   00270A  0012               	return		;funcret
  7398   00270C                     __end_of_Timer3_Interrupt_compare:
  7399                           	callstack 0
  7400                           
  7401 ;; *************** function _ccp_compare_mode_write_value *****************
  7402 ;; Defined at:
  7403 ;;		line 256 in file "MCAL_layer/CCP1/hal_ccp1.c"
  7404 ;; Parameters:    Size  Location     Type
  7405 ;;  ccp             2    0[COMRAM] PTR const struct .
  7406 ;;		 -> ccp_compare(11), 
  7407 ;;  compare_valu    2    2[COMRAM] unsigned short 
  7408 ;; Auto vars:     Size  Location     Type
  7409 ;;  capture_temp    2    6[COMRAM] struct .
  7410 ;;  ret             1    5[COMRAM] unsigned char 
  7411 ;; Return value:  Size  Location     Type
  7412 ;;                  1    wreg      unsigned char 
  7413 ;; Registers used:
  7414 ;;		wreg, fsr2l, fsr2h, status,2, status,0
  7415 ;; Tracked objects:
  7416 ;;		On entry : 0/0
  7417 ;;		On exit  : 0/0
  7418 ;;		Unchanged: 0/0
  7419 ;; Data sizes:     COMRAM   BANK0   BANK1   BANK2   BANK3   BANK4   BANK5   BANK6   BANK7   BANK8   BANK9  BANK10  BANK1
      +1  BANK12  BANK13  BANK14  BANK15
  7420 ;;      Params:         4       0       0       0       0       0       0       0       0       0       0       0       
      +0       0       0       0       0
  7421 ;;      Locals:         3       0       0       0       0       0       0       0       0       0       0       0       
      +0       0       0       0       0
  7422 ;;      Temps:          1       0       0       0       0       0       0       0       0       0       0       0       
      +0       0       0       0       0
  7423 ;;      Totals:         8       0       0       0       0       0       0       0       0       0       0       0       
      +0       0       0       0       0
  7424 ;;Total ram usage:        8 bytes
  7425 ;; Hardware stack levels used: 1
  7426 ;; This function calls:
  7427 ;;		Nothing
  7428 ;; This function is called by:
  7429 ;;		_Timer3_Interrupt_compare
  7430 ;; This function uses a non-reentrant model
  7431 ;;
  7432                           
  7433                           	psect	text44
  7434   002C8E                     __ptext44:
  7435                           	callstack 0
  7436   002C8E                     _ccp_compare_mode_write_value:
  7437                           	callstack 24
  7438   002C8E                     
  7439                           ;MCAL_layer/CCP1/hal_ccp1.c: 257:       Std_ReturnType ret = (Std_ReturnType)0x01 ;
  7440   002C8E  0E01               	movlw	1
  7441   002C90  6E06               	movwf	ccp_compare_mode_write_value@ret^0,c
  7442   002C92                     
  7443                           ;MCAL_layer/CCP1/hal_ccp1.c: 258:       ccp_reg_t capture_temp_value = {.ccp_low = 0 , .
      +                          ccp_high = 0};
  7444   002C92  C0C6  F007         	movff	ccp_compare_mode_write_value@F3067,ccp_compare_mode_write_value@capture_temp_valu
      +                          e
  7445   002C96  C0C7  F008         	movff	ccp_compare_mode_write_value@F3067+1,ccp_compare_mode_write_value@capture_temp_va
      +                          lue+1
  7446   002C9A                     
  7447                           ;MCAL_layer/CCP1/hal_ccp1.c: 259:          if(((void*)0) == ccp)
  7448   002C9A  5001               	movf	ccp_compare_mode_write_value@ccp^0,w,c
  7449   002C9C  1002               	iorwf	(ccp_compare_mode_write_value@ccp+1)^0,w,c
  7450   002C9E  A4D8               	btfss	status,2,c
  7451   002CA0  EF54  F016         	goto	i2u467_41
  7452   002CA4  EF56  F016         	goto	i2u467_40
  7453   002CA8                     i2u467_41:
  7454   002CA8  EF5A  F016         	goto	i2l5488
  7455   002CAC                     i2u467_40:
  7456   002CAC                     
  7457                           ;MCAL_layer/CCP1/hal_ccp1.c: 260:     {;MCAL_layer/CCP1/hal_ccp1.c: 261:         ret = (
      +                          Std_ReturnType)0x00 ;
  7458   002CAC  0E00               	movlw	0
  7459   002CAE  6E06               	movwf	ccp_compare_mode_write_value@ret^0,c
  7460                           
  7461                           ;MCAL_layer/CCP1/hal_ccp1.c: 262:     }
  7462   002CB0  EF80  F016         	goto	i2l5496
  7463   002CB4                     i2l5488:
  7464                           
  7465                           ;MCAL_layer/CCP1/hal_ccp1.c: 264:     {;MCAL_layer/CCP1/hal_ccp1.c: 265:            if(C
      +                          CP1_INST == ccp->ccp_inst)
  7466   002CB4  EE20 F003          	lfsr	2,3
  7467   002CB8  5001               	movf	ccp_compare_mode_write_value@ccp^0,w,c
  7468   002CBA  26D9               	addwf	fsr2l,f,c
  7469   002CBC  5002               	movf	(ccp_compare_mode_write_value@ccp+1)^0,w,c
  7470   002CBE  22DA               	addwfc	fsr2h,f,c
  7471   002CC0  50DF               	movf	indf2,w,c
  7472   002CC2  A4D8               	btfss	status,2,c
  7473   002CC4  EF66  F016         	goto	i2u468_41
  7474   002CC8  EF68  F016         	goto	i2u468_40
  7475   002CCC                     i2u468_41:
  7476   002CCC  EF6E  F016         	goto	i2l5492
  7477   002CD0                     i2u468_40:
  7478   002CD0                     
  7479                           ;MCAL_layer/CCP1/hal_ccp1.c: 266:           {;MCAL_layer/CCP1/hal_ccp1.c: 267:          
      +                              CCPR1L = capture_temp_value.ccp_low ;
  7480   002CD0  C007  FFBE         	movff	ccp_compare_mode_write_value@capture_temp_value,4030	;volatile
  7481                           
  7482                           ;MCAL_layer/CCP1/hal_ccp1.c: 268:              CCPR1H = capture_temp_value.ccp_high ;
  7483   002CD4  C008  FFBF         	movff	ccp_compare_mode_write_value@capture_temp_value+1,4031	;volatile
  7484                           
  7485                           ;MCAL_layer/CCP1/hal_ccp1.c: 269:           }
  7486   002CD8  EF80  F016         	goto	i2l572
  7487   002CDC                     i2l5492:
  7488   002CDC  EE20 F003          	lfsr	2,3
  7489   002CE0  5001               	movf	ccp_compare_mode_write_value@ccp^0,w,c
  7490   002CE2  26D9               	addwf	fsr2l,f,c
  7491   002CE4  5002               	movf	(ccp_compare_mode_write_value@ccp+1)^0,w,c
  7492   002CE6  22DA               	addwfc	fsr2h,f,c
  7493   002CE8  04DE               	decf	postinc2,w,c
  7494   002CEA  A4D8               	btfss	status,2,c
  7495   002CEC  EF7A  F016         	goto	i2u469_41
  7496   002CF0  EF7C  F016         	goto	i2u469_40
  7497   002CF4                     i2u469_41:
  7498   002CF4  EF80  F016         	goto	i2l572
  7499   002CF8                     i2u469_40:
  7500   002CF8                     
  7501                           ;MCAL_layer/CCP1/hal_ccp1.c: 271:           {;MCAL_layer/CCP1/hal_ccp1.c: 272:          
      +                               CCPR2L = capture_temp_value.ccp_low ;
  7502   002CF8  C007  FFBB         	movff	ccp_compare_mode_write_value@capture_temp_value,4027	;volatile
  7503                           
  7504                           ;MCAL_layer/CCP1/hal_ccp1.c: 273:              CCPR2H = capture_temp_value.ccp_high ;
  7505   002CFC  C008  FFBC         	movff	ccp_compare_mode_write_value@capture_temp_value+1,4028	;volatile
  7506   002D00                     i2l572:
  7507   002D00                     i2l5496:
  7508                           
  7509                           ;MCAL_layer/CCP1/hal_ccp1.c: 280:      return ret ;
  7510   002D00  5006               	movf	ccp_compare_mode_write_value@ret^0,w,c
  7511   002D02  0012               	return		;funcret
  7512   002D04                     __end_of_ccp_compare_mode_write_value:
  7513                           	callstack 0
  7514                           
  7515 ;; *************** function _Timer3_Write_Value *****************
  7516 ;; Defined at:
  7517 ;;		line 85 in file "MCAL_layer/Timer3/hal_timer3.c"
  7518 ;; Parameters:    Size  Location     Type
  7519 ;;  timer           2    0[COMRAM] PTR const struct .
  7520 ;;		 -> timer3_compare(6), timer_obj_capture(6), 
  7521 ;;  value           2    2[COMRAM] unsigned short 
  7522 ;; Auto vars:     Size  Location     Type
  7523 ;;  ret             1    4[COMRAM] unsigned char 
  7524 ;; Return value:  Size  Location     Type
  7525 ;;                  1    wreg      unsigned char 
  7526 ;; Registers used:
  7527 ;;		wreg, status,2, status,0
  7528 ;; Tracked objects:
  7529 ;;		On entry : 0/0
  7530 ;;		On exit  : 0/0
  7531 ;;		Unchanged: 0/0
  7532 ;; Data sizes:     COMRAM   BANK0   BANK1   BANK2   BANK3   BANK4   BANK5   BANK6   BANK7   BANK8   BANK9  BANK10  BANK1
      +1  BANK12  BANK13  BANK14  BANK15
  7533 ;;      Params:         4       0       0       0       0       0       0       0       0       0       0       0       
      +0       0       0       0       0
  7534 ;;      Locals:         1       0       0       0       0       0       0       0       0       0       0       0       
      +0       0       0       0       0
  7535 ;;      Temps:          0       0       0       0       0       0       0       0       0       0       0       0       
      +0       0       0       0       0
  7536 ;;      Totals:         5       0       0       0       0       0       0       0       0       0       0       0       
      +0       0       0       0       0
  7537 ;;Total ram usage:        5 bytes
  7538 ;; Hardware stack levels used: 1
  7539 ;; This function calls:
  7540 ;;		Nothing
  7541 ;; This function is called by:
  7542 ;;		_Timer3_Interrupt_compare
  7543 ;;		_CCP_Interrupt_Capture
  7544 ;; This function uses a non-reentrant model
  7545 ;;
  7546                           
  7547                           	psect	text45
  7548   002F88                     __ptext45:
  7549                           	callstack 0
  7550   002F88                     _Timer3_Write_Value:
  7551                           	callstack 24
  7552   002F88                     
  7553                           ;MCAL_layer/Timer3/hal_timer3.c: 86:        Std_ReturnType ret = (Std_ReturnType)0x01 ;
  7554   002F88  0E01               	movlw	1
  7555   002F8A  6E05               	movwf	Timer3_Write_Value@ret^0,c
  7556   002F8C                     
  7557                           ;MCAL_layer/Timer3/hal_timer3.c: 87:     if(((void*)0) == timer)
  7558   002F8C  5001               	movf	Timer3_Write_Value@timer^0,w,c
  7559   002F8E  1002               	iorwf	(Timer3_Write_Value@timer+1)^0,w,c
  7560   002F90  A4D8               	btfss	status,2,c
  7561   002F92  EFCD  F017         	goto	i2u470_41
  7562   002F96  EFCF  F017         	goto	i2u470_40
  7563   002F9A                     i2u470_41:
  7564   002F9A  EFD3  F017         	goto	i2l5506
  7565   002F9E                     i2u470_40:
  7566   002F9E                     
  7567                           ;MCAL_layer/Timer3/hal_timer3.c: 88:     {;MCAL_layer/Timer3/hal_timer3.c: 89:         r
      +                          et = (Std_ReturnType)0x00 ;
  7568   002F9E  0E00               	movlw	0
  7569   002FA0  6E05               	movwf	Timer3_Write_Value@ret^0,c
  7570                           
  7571                           ;MCAL_layer/Timer3/hal_timer3.c: 90:     }
  7572   002FA2  EFD7  F017         	goto	i2l1361
  7573   002FA6                     i2l5506:
  7574                           
  7575                           ;MCAL_layer/Timer3/hal_timer3.c: 92:     {;MCAL_layer/Timer3/hal_timer3.c: 93:         T
      +                          MR3H = (value)>> 8 ;
  7576   002FA6  5004               	movf	(Timer3_Write_Value@value+1)^0,w,c
  7577   002FA8  6EB3               	movwf	179,c	;volatile
  7578   002FAA                     
  7579                           ;MCAL_layer/Timer3/hal_timer3.c: 94:         TMR3L = (uint8)(value);
  7580   002FAA  C003  FFB2         	movff	Timer3_Write_Value@value,4018	;volatile
  7581   002FAE                     i2l1361:
  7582                           
  7583                           ;MCAL_layer/Timer3/hal_timer3.c: 97:      return ret ;
  7584   002FAE  5005               	movf	Timer3_Write_Value@ret^0,w,c
  7585   002FB0  0012               	return		;funcret
  7586   002FB2                     __end_of_Timer3_Write_Value:
  7587                           	callstack 0
  7588                           
  7589 ;; *************** function _ADC_ISR *****************
  7590 ;; Defined at:
  7591 ;;		line 235 in file "MCAL_layer/ADC/hal_adc.c"
  7592 ;; Parameters:    Size  Location     Type
  7593 ;;		None
  7594 ;; Auto vars:     Size  Location     Type
  7595 ;;		None
  7596 ;; Return value:  Size  Location     Type
  7597 ;;                  1    wreg      void 
  7598 ;; Registers used:
  7599 ;;		None
  7600 ;; Tracked objects:
  7601 ;;		On entry : 0/0
  7602 ;;		On exit  : 0/0
  7603 ;;		Unchanged: 0/0
  7604 ;; Data sizes:     COMRAM   BANK0   BANK1   BANK2   BANK3   BANK4   BANK5   BANK6   BANK7   BANK8   BANK9  BANK10  BANK1
      +1  BANK12  BANK13  BANK14  BANK15
  7605 ;;      Params:         0       0       0       0       0       0       0       0       0       0       0       0       
      +0       0       0       0       0
  7606 ;;      Locals:         0       0       0       0       0       0       0       0       0       0       0       0       
      +0       0       0       0       0
  7607 ;;      Temps:          0       0       0       0       0       0       0       0       0       0       0       0       
      +0       0       0       0       0
  7608 ;;      Totals:         0       0       0       0       0       0       0       0       0       0       0       0       
      +0       0       0       0       0
  7609 ;;Total ram usage:        0 bytes
  7610 ;; Hardware stack levels used: 1
  7611 ;; This function calls:
  7612 ;;		Nothing
  7613 ;; This function is called by:
  7614 ;;		_interruptManger
  7615 ;; This function uses a non-reentrant model
  7616 ;;
  7617                           
  7618                           	psect	text46
  7619   003036                     __ptext46:
  7620                           	callstack 0
  7621   003036                     _ADC_ISR:
  7622                           	callstack 26
  7623   003036                     
  7624                           ;MCAL_layer/ADC/hal_adc.c: 236:      (PIR1bits.ADIF= 0);
  7625   003036  9C9E               	bcf	158,6,c	;volatile
  7626   003038  0012               	return		;funcret
  7627   00303A                     __end_of_ADC_ISR:
  7628                           	callstack 0
  7629                           
  7630                           	psect	text47
  7631   000000                     __ptext47:
  7632                           	callstack 0
  7633   000000                     
  7634                           	psect	rparam
  7635   000000                     
  7636                           	psect	temp
  7637   00006A                     btemp:
  7638                           	callstack 0
  7639   00006A                     	ds	1
  7640   000000                     int$flags	set	btemp
  7641   000000                     wtemp8	set	btemp+1
  7642   000000                     ttemp5	set	btemp+1
  7643   000000                     ttemp6	set	btemp+4
  7644   000000                     ttemp7	set	btemp+8
  7645                           
  7646                           	psect	idloc
  7647                           
  7648                           ;Config register IDLOC0 @ 0x200000
  7649                           ;	unspecified, using default values
  7650   200000                     	org	2097152
  7651   200000  FF                 	db	255
  7652                           
  7653                           ;Config register IDLOC1 @ 0x200001
  7654                           ;	unspecified, using default values
  7655   200001                     	org	2097153
  7656   200001  FF                 	db	255
  7657                           
  7658                           ;Config register IDLOC2 @ 0x200002
  7659                           ;	unspecified, using default values
  7660   200002                     	org	2097154
  7661   200002  FF                 	db	255
  7662                           
  7663                           ;Config register IDLOC3 @ 0x200003
  7664                           ;	unspecified, using default values
  7665   200003                     	org	2097155
  7666   200003  FF                 	db	255
  7667                           
  7668                           ;Config register IDLOC4 @ 0x200004
  7669                           ;	unspecified, using default values
  7670   200004                     	org	2097156
  7671   200004  FF                 	db	255
  7672                           
  7673                           ;Config register IDLOC5 @ 0x200005
  7674                           ;	unspecified, using default values
  7675   200005                     	org	2097157
  7676   200005  FF                 	db	255
  7677                           
  7678                           ;Config register IDLOC6 @ 0x200006
  7679                           ;	unspecified, using default values
  7680   200006                     	org	2097158
  7681   200006  FF                 	db	255
  7682                           
  7683                           ;Config register IDLOC7 @ 0x200007
  7684                           ;	unspecified, using default values
  7685   200007                     	org	2097159
  7686   200007  FF                 	db	255
  7687                           
  7688                           	psect	config
  7689                           
  7690                           ; Padding undefined space
  7691   300000                     	org	3145728
  7692   300000  FF                 	db	255
  7693                           
  7694                           ;Config register CONFIG1H @ 0x300001
  7695                           ;	Oscillator Selection bits
  7696                           ;	OSC = HS, HS oscillator
  7697                           ;	Fail-Safe Clock Monitor Enable bit
  7698                           ;	FCMEN = OFF, Fail-Safe Clock Monitor disabled
  7699                           ;	Internal/External Oscillator Switchover bit
  7700                           ;	IESO = OFF, Oscillator Switchover mode disabled
  7701   300001                     	org	3145729
  7702   300001  02                 	db	2
  7703                           
  7704                           ;Config register CONFIG2L @ 0x300002
  7705                           ;	Power-up Timer Enable bit
  7706                           ;	PWRT = OFF, PWRT disabled
  7707                           ;	Brown-out Reset Enable bits
  7708                           ;	BOREN = OFF, Brown-out Reset disabled in hardware and software
  7709                           ;	Brown Out Reset Voltage bits
  7710                           ;	BORV = 1, 
  7711   300002                     	org	3145730
  7712   300002  09                 	db	9
  7713                           
  7714                           ;Config register CONFIG2H @ 0x300003
  7715                           ;	Watchdog Timer Enable bit
  7716                           ;	WDT = OFF, WDT disabled (control is placed on the SWDTEN bit)
  7717                           ;	Watchdog Timer Postscale Select bits
  7718                           ;	WDTPS = 32768, 1:32768
  7719   300003                     	org	3145731
  7720   300003  1E                 	db	30
  7721                           
  7722                           ; Padding undefined space
  7723   300004                     	org	3145732
  7724   300004  FF                 	db	255
  7725                           
  7726                           ;Config register CONFIG3H @ 0x300005
  7727                           ;	CCP2 MUX bit
  7728                           ;	CCP2MX = PORTC, CCP2 input/output is multiplexed with RC1
  7729                           ;	PORTB A/D Enable bit
  7730                           ;	PBADEN = OFF, PORTB<4:0> pins are configured as digital I/O on Reset
  7731                           ;	Low-Power Timer1 Oscillator Enable bit
  7732                           ;	LPT1OSC = OFF, Timer1 configured for higher power operation
  7733                           ;	MCLR Pin Enable bit
  7734                           ;	MCLRE = ON, MCLR pin enabled; RE3 input pin disabled
  7735   300005                     	org	3145733
  7736   300005  81                 	db	129
  7737                           
  7738                           ;Config register CONFIG4L @ 0x300006
  7739                           ;	Stack Full/Underflow Reset Enable bit
  7740                           ;	STVREN = ON, Stack full/underflow will cause Reset
  7741                           ;	Single-Supply ICSP Enable bit
  7742                           ;	LVP = OFF, Single-Supply ICSP disabled
  7743                           ;	Extended Instruction Set Enable bit
  7744                           ;	XINST = OFF, Instruction set extension and Indexed Addressing mode disabled (Legacy mo
      +                          de)
  7745                           ;	Background Debugger Enable bit
  7746                           ;	DEBUG = 0x1, unprogrammed default
  7747   300006                     	org	3145734
  7748   300006  81                 	db	129
  7749                           
  7750                           ; Padding undefined space
  7751   300007                     	org	3145735
  7752   300007  FF                 	db	255
  7753                           
  7754                           ;Config register CONFIG5L @ 0x300008
  7755                           ;	Code Protection bit
  7756                           ;	CP0 = OFF, Block 0 (000800-003FFFh) not code-protected
  7757                           ;	Code Protection bit
  7758                           ;	CP1 = OFF, Block 1 (004000-007FFFh) not code-protected
  7759                           ;	Code Protection bit
  7760                           ;	CP2 = OFF, Block 2 (008000-00BFFFh) not code-protected
  7761                           ;	Code Protection bit
  7762                           ;	CP3 = OFF, Block 3 (00C000-00FFFFh) not code-protected
  7763   300008                     	org	3145736
  7764   300008  0F                 	db	15
  7765                           
  7766                           ;Config register CONFIG5H @ 0x300009
  7767                           ;	Boot Block Code Protection bit
  7768                           ;	CPB = OFF, Boot block (000000-0007FFh) not code-protected
  7769                           ;	Data EEPROM Code Protection bit
  7770                           ;	CPD = OFF, Data EEPROM not code-protected
  7771   300009                     	org	3145737
  7772   300009  C0                 	db	192
  7773                           
  7774                           ;Config register CONFIG6L @ 0x30000A
  7775                           ;	Write Protection bit
  7776                           ;	WRT0 = OFF, Block 0 (000800-003FFFh) not write-protected
  7777                           ;	Write Protection bit
  7778                           ;	WRT1 = OFF, Block 1 (004000-007FFFh) not write-protected
  7779                           ;	Write Protection bit
  7780                           ;	WRT2 = OFF, Block 2 (008000-00BFFFh) not write-protected
  7781                           ;	Write Protection bit
  7782                           ;	WRT3 = OFF, Block 3 (00C000-00FFFFh) not write-protected
  7783   30000A                     	org	3145738
  7784   30000A  0F                 	db	15
  7785                           
  7786                           ;Config register CONFIG6H @ 0x30000B
  7787                           ;	Configuration Register Write Protection bit
  7788                           ;	WRTC = OFF, Configuration registers (300000-3000FFh) not write-protected
  7789                           ;	Boot Block Write Protection bit
  7790                           ;	WRTB = OFF, Boot Block (000000-0007FFh) not write-protected
  7791                           ;	Data EEPROM Write Protection bit
  7792                           ;	WRTD = OFF, Data EEPROM not write-protected
  7793   30000B                     	org	3145739
  7794   30000B  E0                 	db	224
  7795                           
  7796                           ;Config register CONFIG7L @ 0x30000C
  7797                           ;	Table Read Protection bit
  7798                           ;	EBTR0 = OFF, Block 0 (000800-003FFFh) not protected from table reads executed in other
      +                           blocks
  7799                           ;	Table Read Protection bit
  7800                           ;	EBTR1 = OFF, Block 1 (004000-007FFFh) not protected from table reads executed in other
      +                           blocks
  7801                           ;	Table Read Protection bit
  7802                           ;	EBTR2 = OFF, Block 2 (008000-00BFFFh) not protected from table reads executed in other
      +                           blocks
  7803                           ;	Table Read Protection bit
  7804                           ;	EBTR3 = OFF, Block 3 (00C000-00FFFFh) not protected from table reads executed in other
      +                           blocks
  7805   30000C                     	org	3145740
  7806   30000C  0F                 	db	15
  7807                           
  7808                           ;Config register CONFIG7H @ 0x30000D
  7809                           ;	Boot Block Table Read Protection bit
  7810                           ;	EBTRB = OFF, Boot Block (000000-0007FFh) not protected from table reads executed in ot
      +                          her blocks
  7811   30000D                     	org	3145741
  7812   30000D  40                 	db	64
  7813                           tosu	equ	0xFFF
  7814                           tosh	equ	0xFFE
  7815                           tosl	equ	0xFFD
  7816                           stkptr	equ	0xFFC
  7817                           pclatu	equ	0xFFB
  7818                           pclath	equ	0xFFA
  7819                           pcl	equ	0xFF9
  7820                           tblptru	equ	0xFF8
  7821                           tblptrh	equ	0xFF7
  7822                           tblptrl	equ	0xFF6
  7823                           tablat	equ	0xFF5
  7824                           prodh	equ	0xFF4
  7825                           prodl	equ	0xFF3
  7826                           indf0	equ	0xFEF
  7827                           postinc0	equ	0xFEE
  7828                           postdec0	equ	0xFED
  7829                           preinc0	equ	0xFEC
  7830                           plusw0	equ	0xFEB
  7831                           fsr0h	equ	0xFEA
  7832                           fsr0l	equ	0xFE9
  7833                           wreg	equ	0xFE8
  7834                           indf1	equ	0xFE7
  7835                           postinc1	equ	0xFE6
  7836                           postdec1	equ	0xFE5
  7837                           preinc1	equ	0xFE4
  7838                           plusw1	equ	0xFE3
  7839                           fsr1h	equ	0xFE2
  7840                           fsr1l	equ	0xFE1
  7841                           bsr	equ	0xFE0
  7842                           indf2	equ	0xFDF
  7843                           postinc2	equ	0xFDE
  7844                           postdec2	equ	0xFDD
  7845                           preinc2	equ	0xFDC
  7846                           plusw2	equ	0xFDB
  7847                           fsr2h	equ	0xFDA
  7848                           fsr2l	equ	0xFD9
  7849                           status	equ	0xFD8

Data Sizes:
    Strings     3
    Constant    16
    Data        165
    BSS         156
    Persistent  1
    Stack       0

Auto Spaces:
    Space          Size  Autos    Used
    COMRAM          126     70     105
    BANK0           128      0     128
    BANK1           256     21     180
    BANK2           256      0       0
    BANK3           256      0       0
    BANK4           256      0       0
    BANK5           256      0       0
    BANK6           256      0       0
    BANK7           256      0       0
    BANK8           256      0       0
    BANK9           256      0       0
    BANK10          256      0       0
    BANK11          256      0       0
    BANK12          256      0       0
    BANK13          256      0       0
    BANK14          256      0       0
    BANK15          128      0       0

Pointer List with Targets:

    vfprintf$2	PTR PTR void  size(2) Largest target is 2
		 -> sprintf@ap(COMRAM[2]), 

    vfprintf$1	PTR const unsigned char  size(2) Largest target is 3
		 -> STR_3(CODE[3]), STR_2(CODE[3]), STR_1(CODE[3]), 

    vfprintf$0	PTR struct _IO_FILE size(2) Largest target is 12
		 -> sprintf@f(COMRAM[12]), 

    S5047$source	PTR const unsigned char  size(2) Largest target is 0

    f...source	PTR const unsigned char  size(2) Largest target is 0

    S5047$buffer	PTR unsigned char  size(2) Largest target is 0

    f...buffer	PTR unsigned char  size(2) Largest target is 0

    timer3_compare.TM3_InterruptHandler	PTR FTN()void  size(2) Largest target is 1
		 -> Timer3_Interrupt_capture(), NULL(), 

    ccp_compare.CCP2_InterruptHandler	PTR FTN()void  size(2) Largest target is 0

    ccp_compare.CCP1_InterruptHandler	PTR FTN()void  size(2) Largest target is 1
		 -> Timer3_Interrupt_compare(), Timer3_Interrupt_capture(), 

    timer_obj_capture.TM3_InterruptHandler	PTR FTN()void  size(2) Largest target is 1
		 -> Timer3_Interrupt_capture(), NULL(), 

    ccp_obj_capture.CCP2_InterruptHandler	PTR FTN()void  size(2) Largest target is 0

    ccp_obj_capture.CCP1_InterruptHandler	PTR FTN()void  size(2) Largest target is 1
		 -> Timer3_Interrupt_compare(), Timer3_Interrupt_capture(), 

    timer2_obj.TM2_InterruptHandler	PTR FTN()void  size(2) Largest target is 1
		 -> timer2_ISR(), NULL(), 

    usart_obj_1.USART_OVERRUN_InterruptHandler	PTR FTN()void  size(2) Largest target is 1
		 -> NULL(), 

    usart_obj_1.USART_FRAMING_InterruptHandler	PTR FTN()void  size(2) Largest target is 1
		 -> NULL(), 

    usart_obj_1.USART_RX_InterruptHandler	PTR FTN()void  size(2) Largest target is 1
		 -> NULL(), 

    usart_obj_1.USART_TX_InterruptHandler	PTR FTN()void  size(2) Largest target is 1
		 -> NULL(), 

    timer0_counter.TM0_InterruptHandler	PTR FTN()void  size(2) Largest target is 1
		 -> timer_ISR(), 

    timer0.TM0_InterruptHandler	PTR FTN()void  size(2) Largest target is 1
		 -> timer_ISR(), 

    ADC_1.ADC_InterruptHandler	PTR FTN()void  size(2) Largest target is 1
		 -> NULL(), 

    intRB_0.Ext_Interrupt_Low	PTR FTN()void  size(2) Largest target is 1
		 -> APP_RB4_Low(), 

    intRB_0.Ext_Interrupt_High	PTR FTN()void  size(2) Largest target is 1
		 -> APP_RB4_High(), 

    intx_0.Ext_InterruptHandler	PTR FTN()void  size(2) Largest target is 1
		 -> APP_ISR(), 

    timer_obj.TM1_InterruptHandler	PTR FTN()void  size(2) Largest target is 1
		 -> Timer1_Default(), 

    timer2.TM2_InterruptHandler	PTR FTN()void  size(2) Largest target is 1
		 -> timer2_ISR(), NULL(), 

    counter_obj.TM1_InterruptHandler	PTR FTN()void  size(2) Largest target is 1
		 -> Timer1_Default(), 

    i2c_obj.I2C_Report_Recive_OverFlow	PTR FTN()void  size(2) Largest target is 0
		 -> NULL(NULL[0]), 

    i2c_obj.I2C_DefaultInterruptHandler	PTR FTN()void  size(2) Largest target is 1
		 -> MSSP_I2C_DefaultInterruptHandler(), 

    i2c_obj.I2C_Report_Write_Collision	PTR FTN()void  size(2) Largest target is 0
		 -> NULL(NULL[0]), 

    USART_OVERRUN_ERROR_InterruptHandler	PTR FTN()void  size(2) Largest target is 1
		 -> NULL(), 

    USART_FRAMING_ERROR_InterruptHandler	PTR FTN()void  size(2) Largest target is 1
		 -> NULL(), 

    USART_RX_InterruptHandler	PTR FTN()void  size(2) Largest target is 1
		 -> NULL(), 

    USART_ASYNC_RX_Init@usart.USART_OVERRUN_InterruptHandler	PTR FTN()void  size(2) Largest target is 1
		 -> NULL(), 

    USART_ASYNC_RX_Init@usart.USART_FRAMING_InterruptHandler	PTR FTN()void  size(2) Largest target is 1
		 -> NULL(), 

    USART_ASYNC_RX_Init@usart.USART_RX_InterruptHandler	PTR FTN()void  size(2) Largest target is 1
		 -> NULL(), 

    USART_ASYNC_RX_Init@usart.USART_TX_InterruptHandler	PTR FTN()void  size(2) Largest target is 1
		 -> NULL(), 

    USART_TX_InterruptHandler	PTR FTN()void  size(2) Largest target is 1
		 -> NULL(), 

    USART_ASYNC_TX_Init@usart.USART_OVERRUN_InterruptHandler	PTR FTN()void  size(2) Largest target is 1
		 -> NULL(), 

    USART_ASYNC_TX_Init@usart.USART_FRAMING_InterruptHandler	PTR FTN()void  size(2) Largest target is 1
		 -> NULL(), 

    USART_ASYNC_TX_Init@usart.USART_RX_InterruptHandler	PTR FTN()void  size(2) Largest target is 1
		 -> NULL(), 

    USART_ASYNC_TX_Init@usart.USART_TX_InterruptHandler	PTR FTN()void  size(2) Largest target is 1
		 -> NULL(), 

    S3515$USART_OVERRUN_InterruptHandler	PTR FTN()void  size(2) Largest target is 1
		 -> NULL(), 

    USART_BaudRate_Calculation@usart.USART_OVERRUN_InterruptHandler	PTR FTN()void  size(2) Largest target is 1
		 -> NULL(), 

    S3515$USART_FRAMING_InterruptHandler	PTR FTN()void  size(2) Largest target is 1
		 -> NULL(), 

    USART_BaudRate_Calculation@usart.USART_FRAMING_InterruptHandler	PTR FTN()void  size(2) Largest target is 1
		 -> NULL(), 

    S3515$USART_RX_InterruptHandler	PTR FTN()void  size(2) Largest target is 1
		 -> NULL(), 

    USART_BaudRate_Calculation@usart.USART_RX_InterruptHandler	PTR FTN()void  size(2) Largest target is 1
		 -> NULL(), 

    S3515$USART_TX_InterruptHandler	PTR FTN()void  size(2) Largest target is 1
		 -> NULL(), 

    USART_BaudRate_Calculation@usart.USART_TX_InterruptHandler	PTR FTN()void  size(2) Largest target is 1
		 -> NULL(), 

    Timer3_Mode_Select@timer.TM3_InterruptHandler	PTR FTN()void  size(2) Largest target is 1
		 -> Timer3_Interrupt_capture(), NULL(), 

    Timer3_Write_Value@timer	PTR const struct . size(2) Largest target is 6
		 -> timer3_compare(BANK1[6]), timer_obj_capture(BANK1[6]), 

    S3332$TM3_InterruptHandler	PTR FTN()void  size(2) Largest target is 1
		 -> Timer3_Interrupt_capture(), NULL(), 

    Timer3_Init@timer.TM3_InterruptHandler	PTR FTN()void  size(2) Largest target is 1
		 -> Timer3_Interrupt_capture(), NULL(), 

    TM3_InterruptHandler	PTR FTN()void  size(2) Largest target is 1
		 -> Timer3_Interrupt_capture(), NULL(), 

    TM2_InterruptHandler	PTR FTN()void  size(2) Largest target is 1
		 -> timer2_ISR(), NULL(), 

    S3203$TM2_InterruptHandler	PTR FTN()void  size(2) Largest target is 1
		 -> timer2_ISR(), NULL(), 

    Timer2_Init@timer.TM2_InterruptHandler	PTR FTN()void  size(2) Largest target is 1
		 -> timer2_ISR(), NULL(), 

    Timer1_Mode_Select@timer.TM1_InterruptHandler	PTR FTN()void  size(2) Largest target is 1
		 -> Timer1_Default(), 

    TM1_InterruptHandler	PTR FTN()void  size(2) Largest target is 1
		 -> Timer1_Default(), NULL(), 

    S3018$TM1_InterruptHandler	PTR FTN()void  size(2) Largest target is 1
		 -> Timer1_Default(), 

    Timer1_Init@timer.TM1_InterruptHandler	PTR FTN()void  size(2) Largest target is 1
		 -> Timer1_Default(), 

    Timer0_Register_Size@timer.TM0_InterruptHandler	PTR FTN()void  size(2) Largest target is 1
		 -> timer_ISR(), 

    Timer0_Mode_Select@timer.TM0_InterruptHandler	PTR FTN()void  size(2) Largest target is 1
		 -> timer_ISR(), 

    Timer0_Prescaler_Config@timer.TM0_InterruptHandler	PTR FTN()void  size(2) Largest target is 1
		 -> timer_ISR(), 

    TM0_InterruptHandler	PTR FTN()void  size(2) Largest target is 1
		 -> timer_ISR(), NULL(), 

    S2854$TM0_InterruptHandler	PTR FTN()void  size(2) Largest target is 1
		 -> timer_ISR(), 

    Timer0_Init@timer.TM0_InterruptHandler	PTR FTN()void  size(2) Largest target is 1
		 -> timer_ISR(), 

    Interrupt_INTx_SetInterruptHandler@obj.Ext_InterruptHandler	PTR FTN()void  size(2) Largest target is 1
		 -> APP_ISR(), 

    Interrupt_INTx_ClearFlag@obj.Ext_InterruptHandler	PTR FTN()void  size(2) Largest target is 1
		 -> APP_ISR(), 

    Interrupt_INTx_Pin_Init@obj.Ext_InterruptHandler	PTR FTN()void  size(2) Largest target is 1
		 -> APP_ISR(), 

    Interrupt_INTx_Edge_Init@obj.Ext_InterruptHandler	PTR FTN()void  size(2) Largest target is 1
		 -> APP_ISR(), 

    Interrupt_INTx_Disable@obj.Ext_InterruptHandler	PTR FTN()void  size(2) Largest target is 1
		 -> APP_ISR(), 

    S2538$Ext_InterruptHandler	PTR FTN()void  size(2) Largest target is 1
		 -> APP_ISR(), 

    Interrupt_INTx_Enable@obj.Ext_InterruptHandler	PTR FTN()void  size(2) Largest target is 1
		 -> APP_ISR(), 

    S2636$Ext_Interrupt_Low	PTR FTN()void  size(2) Largest target is 1
		 -> APP_RB4_Low(), 

    Interrupt_RBx_Init@obj.Ext_Interrupt_Low	PTR FTN()void  size(2) Largest target is 1
		 -> APP_RB4_Low(), 

    S2636$Ext_Interrupt_High	PTR FTN()void  size(2) Largest target is 1
		 -> APP_RB4_High(), 

    Interrupt_RBx_Init@obj.Ext_Interrupt_High	PTR FTN()void  size(2) Largest target is 1
		 -> APP_RB4_High(), 

    RB7_InterruptHandler_Low	PTR FTN()void  size(2) Largest target is 1
		 -> APP_RB4_Low(), NULL(), 

    RB7_InterruptHandler_High	PTR FTN()void  size(2) Largest target is 1
		 -> APP_RB4_High(), NULL(), 

    RB6_InterruptHandler_Low	PTR FTN()void  size(2) Largest target is 1
		 -> APP_RB4_Low(), NULL(), 

    RB6_InterruptHandler_High	PTR FTN()void  size(2) Largest target is 1
		 -> APP_RB4_High(), NULL(), 

    RB5_InterruptHandler_Low	PTR FTN()void  size(2) Largest target is 1
		 -> APP_RB4_Low(), NULL(), 

    RB5_InterruptHandler_High	PTR FTN()void  size(2) Largest target is 1
		 -> APP_RB4_High(), NULL(), 

    RB4_InterruptHandler_Low	PTR FTN()void  size(2) Largest target is 1
		 -> APP_RB4_Low(), NULL(), 

    RB4_InterruptHandler_High	PTR FTN()void  size(2) Largest target is 1
		 -> APP_RB4_High(), NULL(), 

    INT1_InterruptHandler	PTR FTN()void  size(2) Largest target is 1
		 -> APP_ISR(), NULL(), 

    INT2_InterruptHandler	PTR FTN()void  size(2) Largest target is 1
		 -> APP_ISR(), NULL(), 

    INT0_InterruptHandler	PTR FTN()void  size(2) Largest target is 1
		 -> APP_ISR(), NULL(), 

    I2C_Report_Recive_OverFlow_InterruptHandler	PTR FTN()void  size(2) Largest target is 1
		 -> NULL(), NULL(NULL[0]), 

    I2C_DefaultInterruptHandler	PTR FTN()void  size(2) Largest target is 1
		 -> MSSP_I2C_DefaultInterruptHandler(), NULL(), 

    MSSP_Interrupt_config@i2c_obj.I2C_Report_Recive_OverFlow	PTR FTN()void  size(2) Largest target is 0
		 -> NULL(NULL[0]), 

    MSSP_Interrupt_config@i2c_obj.I2C_DefaultInterruptHandler	PTR FTN()void  size(2) Largest target is 1
		 -> MSSP_I2C_DefaultInterruptHandler(), 

    MSSP_Interrupt_config@i2c_obj.I2C_Report_Write_Collision	PTR FTN()void  size(2) Largest target is 0
		 -> NULL(NULL[0]), 

    MSSP_Interrupt_config@i2c_obj	PTR const struct . size(2) Largest target is 13
		 -> i2c_obj(BANK0[13]), 

    I2C_Report_Write_Collision_InterruptHandler	PTR FTN()void  size(2) Largest target is 1
		 -> NULL(), NULL(NULL[0]), 

    S1787$I2C_Report_Recive_OverFlow	PTR FTN()void  size(2) Largest target is 0
		 -> NULL(NULL[0]), 

    mssp_i2c_Init@i2c_obj.I2C_Report_Recive_OverFlow	PTR FTN()void  size(2) Largest target is 0
		 -> NULL(NULL[0]), 

    S1787$I2C_DefaultInterruptHandler	PTR FTN()void  size(2) Largest target is 1
		 -> MSSP_I2C_DefaultInterruptHandler(), 

    mssp_i2c_Init@i2c_obj.I2C_DefaultInterruptHandler	PTR FTN()void  size(2) Largest target is 1
		 -> MSSP_I2C_DefaultInterruptHandler(), 

    S1787$I2C_Report_Write_Collision	PTR FTN()void  size(2) Largest target is 0
		 -> NULL(NULL[0]), 

    mssp_i2c_Init@i2c_obj.I2C_Report_Write_Collision	PTR FTN()void  size(2) Largest target is 0
		 -> NULL(NULL[0]), 

    mssp_i2c_Init@i2c_obj	PTR const struct . size(2) Largest target is 13
		 -> i2c_obj(BANK0[13]), 

    gpio_pin_toggle_logic@pin_config	PTR const struct . size(2) Largest target is 1
		 -> led_toggle@config(COMRAM[1]), 

    gpio_pin_intialize@pin_config	PTR const struct . size(2) Largest target is 1
		 -> relay_intialize@config(COMRAM[1]), led_intialize@config(COMRAM[1]), dc_motor_intialize@config_2(COMRAM[1]), dc_motor_intialize@config_1(COMRAM[1]), 

    gpio_pin_write_logic@pin_config	PTR const struct . size(2) Largest target is 1
		 -> relay_turn_off@config(COMRAM[1]), relay_turn_on@config(COMRAM[1]), relay_intialize@config(COMRAM[1]), led_turn_off@config(COMRAM[1]), 
		 -> led_turn_on@config(COMRAM[1]), led_intialize@config(COMRAM[1]), dc_motor_stop@config_2(COMRAM[1]), dc_motor_stop@config_1(COMRAM[1]), 
		 -> dc_motor_turn_left@config_2(COMRAM[1]), dc_motor_turn_left@config_1(COMRAM[1]), dc_motor_turn_right@config_2(COMRAM[1]), dc_motor_turn_right@config_1(COMRAM[1]), 
		 -> dc_motor_intialize@config_2(COMRAM[1]), dc_motor_intialize@config_1(COMRAM[1]), 

    gpio_pin_direction_intialize@pin_config	PTR const struct . size(2) Largest target is 1
		 -> relay_intialize@config(COMRAM[1]), led_intialize@config(COMRAM[1]), dc_motor_intialize@config_2(COMRAM[1]), dc_motor_intialize@config_1(COMRAM[1]), 

    port_register	PTR volatile unsigned char [5] size(2) Largest target is 1
		 -> PORTE(BITBIGSFRlllll[1]), PORTD(BITBIGSFRlllll[1]), PORTC(BITBIGSFRlllll[1]), PORTB(BITBIGSFRlllll[1]), 
		 -> PORTA(BITBIGSFRlllll[1]), 

    lat_register	PTR volatile unsigned char [5] size(2) Largest target is 1
		 -> LATE(BITBIGSFRllllh[1]), LATD(BITBIGSFRllllh[1]), LATC(BITBIGSFRllllh[1]), LATB(BITBIGSFRllllh[1]), 
		 -> LATA(BITBIGSFRlllll[1]), 

    tris_register	PTR volatile unsigned char [5] size(2) Largest target is 1
		 -> TRISD(ABS[1]), TRISC(ABS[1]), TRISB(ABS[1]), TRISE(ABS[1]), 
		 -> TRISA(BITBIGSFRlllll[1]), 

    CCP_Timer_Selected@ccp.CCP2_InterruptHandler	PTR FTN()void  size(2) Largest target is 0

    CCP_Timer_Selected@ccp.CCP1_InterruptHandler	PTR FTN()void  size(2) Largest target is 1
		 -> Timer3_Interrupt_compare(), Timer3_Interrupt_capture(), 

    CCP_Interrupt_Config@ccp.CCP2_InterruptHandler	PTR FTN()void  size(2) Largest target is 0

    CCP_Interrupt_Config@ccp.CCP1_InterruptHandler	PTR FTN()void  size(2) Largest target is 1
		 -> Timer3_Interrupt_compare(), Timer3_Interrupt_capture(), 

    CCP2_InterruptHandler	PTR FTN()void  size(2) Largest target is 1
		 -> NULL(), 

    CCP1_InterruptHandler	PTR FTN()void  size(2) Largest target is 1
		 -> Timer3_Interrupt_compare(), Timer3_Interrupt_capture(), NULL(), 

    ccp_compare_mode_write_value@ccp.CCP2_InterruptHandler	PTR FTN()void  size(2) Largest target is 0

    ccp_compare_mode_write_value@ccp.CCP1_InterruptHandler	PTR FTN()void  size(2) Largest target is 1
		 -> Timer3_Interrupt_compare(), Timer3_Interrupt_capture(), 

    ccp_compare_mode_write_value@ccp	PTR const struct . size(2) Largest target is 11
		 -> ccp_compare(BANK1[11]), 

    ccp_DEInit@ccp.CCP2_InterruptHandler	PTR FTN()void  size(2) Largest target is 0

    ccp_DEInit@ccp.CCP1_InterruptHandler	PTR FTN()void  size(2) Largest target is 1
		 -> Timer3_Interrupt_compare(), Timer3_Interrupt_capture(), 

    S1174$CCP2_InterruptHandler	PTR FTN()void  size(2) Largest target is 0

    ccp_Init@ccp.CCP2_InterruptHandler	PTR FTN()void  size(2) Largest target is 0

    S1174$CCP1_InterruptHandler	PTR FTN()void  size(2) Largest target is 1
		 -> Timer3_Interrupt_compare(), Timer3_Interrupt_capture(), 

    ccp_Init@ccp.CCP1_InterruptHandler	PTR FTN()void  size(2) Largest target is 1
		 -> Timer3_Interrupt_compare(), Timer3_Interrupt_capture(), 

    adc_voltage_reference@adc.ADC_InterruptHandler	PTR FTN()void  size(2) Largest target is 1
		 -> NULL(), 

    adc_select_format@adc.ADC_InterruptHandler	PTR FTN()void  size(2) Largest target is 1
		 -> NULL(), 

    ADC_GetConversionResult@adc.ADC_InterruptHandler	PTR FTN()void  size(2) Largest target is 1
		 -> NULL(), 

    ADC_InterruptHandler	PTR FTN()void  size(2) Largest target is 1
		 -> NULL(), 

    S755$ADC_InterruptHandler	PTR FTN()void  size(2) Largest target is 1
		 -> NULL(), 

    ADC_Init@adc.ADC_InterruptHandler	PTR FTN()void  size(2) Largest target is 1
		 -> NULL(), 

    led_toggle@led	PTR const struct . size(2) Largest target is 1
		 -> led_1(COMRAM[1]), 

    led_turn_off@led	PTR const struct . size(2) Largest target is 1
		 -> led_1(COMRAM[1]), 

    led_turn_on@led	PTR const struct . size(2) Largest target is 1
		 -> led_1(COMRAM[1]), 

    led_intialize@led	PTR const struct . size(2) Largest target is 1
		 -> led_1(COMRAM[1]), 

    sp__memset	PTR void  size(2) Largest target is 3967
		 -> RAM(DATA[3967]), 


Critical Paths under _main in COMRAM

    _mssp_i2c_Init->___fltol
    ___fltol->___fladd
    ___fldiv->___xxtofl
    ___fladd->___fldiv
    _led_turn_on->_gpio_pin_write_logic
    _led_turn_off->_gpio_pin_write_logic
    _led_intialize->_gpio_pin_intialize
    _gpio_pin_intialize->_gpio_pin_write_logic

Critical Paths under _interruptManger in COMRAM

    _interruptManger->_RB4_ISR
    _interruptManger->_RB5_ISR
    _interruptManger->_RB6_ISR
    _interruptManger->_RB7_ISR
    _APP_RB4_Low->i2_led_turn_off
    i2_led_turn_off->i2_gpio_pin_write_logic
    _APP_RB4_High->i2_led_turn_on
    i2_led_turn_on->i2_gpio_pin_write_logic
    _APP_ISR->_led_toggle
    _led_toggle->_gpio_pin_toggle_logic
    _Timer3_Interrupt_compare->_ccp_compare_mode_write_value

Critical Paths under _main in BANK0

    None.

Critical Paths under _interruptManger in BANK0

    None.

Critical Paths under _main in BANK1

    _main->_mssp_i2c_Init
    _mssp_i2c_Init->___fltol
    ___fltol->___fladd

Critical Paths under _interruptManger in BANK1

    None.

Critical Paths under _main in BANK2

    None.

Critical Paths under _interruptManger in BANK2

    None.

Critical Paths under _main in BANK3

    None.

Critical Paths under _interruptManger in BANK3

    None.

Critical Paths under _main in BANK4

    None.

Critical Paths under _interruptManger in BANK4

    None.

Critical Paths under _main in BANK5

    None.

Critical Paths under _interruptManger in BANK5

    None.

Critical Paths under _main in BANK6

    None.

Critical Paths under _interruptManger in BANK6

    None.

Critical Paths under _main in BANK7

    None.

Critical Paths under _interruptManger in BANK7

    None.

Critical Paths under _main in BANK8

    None.

Critical Paths under _interruptManger in BANK8

    None.

Critical Paths under _main in BANK9

    None.

Critical Paths under _interruptManger in BANK9

    None.

Critical Paths under _main in BANK10

    None.

Critical Paths under _interruptManger in BANK10

    None.

Critical Paths under _main in BANK11

    None.

Critical Paths under _interruptManger in BANK11

    None.

Critical Paths under _main in BANK12

    None.

Critical Paths under _interruptManger in BANK12

    None.

Critical Paths under _main in BANK13

    None.

Critical Paths under _interruptManger in BANK13

    None.

Critical Paths under _main in BANK14

    None.

Critical Paths under _interruptManger in BANK14

    None.

Critical Paths under _main in BANK15

    None.

Critical Paths under _interruptManger in BANK15

    None.

Call Graph Tables:

 ---------------------------------------------------------------------------------
 (Depth) Function   	        Calls       Base Space   Used Autos Params    Refs
 ---------------------------------------------------------------------------------
 (0) _main                                                 0     0      0   28289
                      _led_intialize
                       _led_turn_off
                        _led_turn_on
                      _mssp_i2c_Init
 ---------------------------------------------------------------------------------
 (1) _mssp_i2c_Init                                        5     3      2   10922
                                             16 BANK1      5     3      2
              _MSSP_Interrupt_config
                            ___fladd
                            ___fldiv
                            ___fltol
                           ___xxtofl
 ---------------------------------------------------------------------------------
 (2) ___xxtofl                                            14    10      4    1076
                                             21 COMRAM    14    10      4
 ---------------------------------------------------------------------------------
 (2) ___fltol                                             10     6      4     577
                                             68 COMRAM     2     2      0
                                              8 BANK1      8     4      4
                            ___fladd (ARG)
                            ___fldiv (ARG)
                           ___xxtofl (ARG)
 ---------------------------------------------------------------------------------
 (2) ___fldiv                                             25    17      8    4103
                                             35 COMRAM    25    17      8
                           ___xxtofl (ARG)
 ---------------------------------------------------------------------------------
 (2) ___fladd                                             16     8      8    4422
                                             60 COMRAM     8     0      8
                                              0 BANK1      8     8      0
                            ___fldiv (ARG)
                           ___xxtofl (ARG)
 ---------------------------------------------------------------------------------
 (2) _MSSP_Interrupt_config                                2     0      2     183
                                             21 COMRAM     2     0      2
 ---------------------------------------------------------------------------------
 (1) _led_turn_on                                          5     3      2    5166
                                             31 COMRAM     5     3      2
               _gpio_pin_write_logic
 ---------------------------------------------------------------------------------
 (1) _led_turn_off                                         5     3      2    5166
                                             31 COMRAM     5     3      2
               _gpio_pin_write_logic
 ---------------------------------------------------------------------------------
 (1) _led_intialize                                        5     3      2    7035
                                             35 COMRAM     5     3      2
                 _gpio_pin_intialize
 ---------------------------------------------------------------------------------
 (2) _gpio_pin_intialize                                   4     2      2    6802
                                             31 COMRAM     4     2      2
       _gpio_pin_direction_intialize
               _gpio_pin_write_logic
 ---------------------------------------------------------------------------------
 (2) _gpio_pin_write_logic                                10     7      3    4891
                                             21 COMRAM    10     7      3
 ---------------------------------------------------------------------------------
 (3) _gpio_pin_direction_intialize                         9     7      2     559
                                             21 COMRAM     9     7      2
 ---------------------------------------------------------------------------------
 Estimated maximum stack depth 3
 ---------------------------------------------------------------------------------
 (Depth) Function   	        Calls       Base Space   Used Autos Params    Refs
 ---------------------------------------------------------------------------------
 (4) _interruptManger                                      6     6      0    5355
                                             15 COMRAM     6     6      0
                            _ADC_ISR
                           _CCP1_ISR
                           _CCP2_ISR
                           _INT0_ISR
                           _INT1_ISR
                  _MSSP_I2C_BUSC_ISR
                       _MSSP_I2C_ISR
                            _RB4_ISR
                            _RB5_ISR
                            _RB6_ISR
                            _RB7_ISR
                            _TM0_ISR
                            _TM1_ISR
                            _TM2_ISR
                            _TM3_ISR
                       _USART_RX_ISR
                       _USART_TX_ISR
 ---------------------------------------------------------------------------------
 (5) _USART_TX_ISR                                         0     0      0       0
 ---------------------------------------------------------------------------------
 (5) _USART_RX_ISR                                         0     0      0       0
 ---------------------------------------------------------------------------------
 (5) _TM3_ISR                                              0     0      0       0
                                NULL *
           _Timer3_Interrupt_capture *
 ---------------------------------------------------------------------------------
 (5) _TM2_ISR                                              0     0      0       0
                                NULL *
                         _timer2_ISR *
 ---------------------------------------------------------------------------------
 (6) _timer2_ISR                                           0     0      0       0
 ---------------------------------------------------------------------------------
 (5) _TM1_ISR                                              0     0      0       0
                                NULL *
                     _Timer1_Default *
 ---------------------------------------------------------------------------------
 (6) _Timer1_Default                                       0     0      0       0
 ---------------------------------------------------------------------------------
 (5) _TM0_ISR                                              0     0      0       0
                                NULL *
                          _timer_ISR *
 ---------------------------------------------------------------------------------
 (6) _timer_ISR                                            0     0      0       0
 ---------------------------------------------------------------------------------
 (5) _RB7_ISR                                              1     1      0     918
                                             14 COMRAM     1     1      0
                                NULL *
                       _APP_RB4_High *
                        _APP_RB4_Low *
 ---------------------------------------------------------------------------------
 (5) _RB6_ISR                                              1     1      0     918
                                             14 COMRAM     1     1      0
                                NULL *
                       _APP_RB4_High *
                        _APP_RB4_Low *
 ---------------------------------------------------------------------------------
 (5) _RB5_ISR                                              1     1      0     918
                                             14 COMRAM     1     1      0
                                NULL *
                       _APP_RB4_High *
                        _APP_RB4_Low *
 ---------------------------------------------------------------------------------
 (5) _RB4_ISR                                              1     1      0     918
                                             14 COMRAM     1     1      0
                                NULL *
                       _APP_RB4_High *
                        _APP_RB4_Low *
 ---------------------------------------------------------------------------------
 (6) _APP_RB4_Low                                          0     0      0     437
                     i2_led_turn_off
 ---------------------------------------------------------------------------------
 (7) i2_led_turn_off                                       5     3      2     437
                                              9 COMRAM     5     3      2
             i2_gpio_pin_write_logic
 ---------------------------------------------------------------------------------
 (6) _APP_RB4_High                                         0     0      0     437
                      i2_led_turn_on
 ---------------------------------------------------------------------------------
 (7) i2_led_turn_on                                        5     3      2     437
                                              9 COMRAM     5     3      2
             i2_gpio_pin_write_logic
 ---------------------------------------------------------------------------------
 (8) i2_gpio_pin_write_logic                              10     7      3     267
                                              0 COMRAM     9     6      3
 ---------------------------------------------------------------------------------
 (5) _MSSP_I2C_ISR                                         0     0      0       1
                                NULL *
   _MSSP_I2C_DefaultInterruptHandler *
 ---------------------------------------------------------------------------------
 (6) _MSSP_I2C_DefaultInterruptHandler                     1     1      0       1
 ---------------------------------------------------------------------------------
 (5) _MSSP_I2C_BUSC_ISR                                    0     0      0       0
 ---------------------------------------------------------------------------------
 (5) _INT1_ISR                                             0     0      0     390
                                NULL *
                            _APP_ISR *
 ---------------------------------------------------------------------------------
 (5) _INT0_ISR                                             0     0      0     390
                                NULL *
                            _APP_ISR *
 ---------------------------------------------------------------------------------
 (6) _APP_ISR                                              0     0      0     390
                         _led_toggle
 ---------------------------------------------------------------------------------
 (7) _led_toggle                                           5     3      2     390
                                              7 COMRAM     5     3      2
              _gpio_pin_toggle_logic
 ---------------------------------------------------------------------------------
 (8) _gpio_pin_toggle_logic                                8     6      2     172
                                              0 COMRAM     7     5      2
 ---------------------------------------------------------------------------------
 (5) _CCP2_ISR                                             0     0      0       0
 ---------------------------------------------------------------------------------
 (5) _CCP1_ISR                                             0     0      0     902
                                NULL *
           _Timer3_Interrupt_capture *
           _Timer3_Interrupt_compare *
 ---------------------------------------------------------------------------------
 (6) _Timer3_Interrupt_compare                             0     0      0     902
                 _Timer3_Write_Value
       _ccp_compare_mode_write_value
 ---------------------------------------------------------------------------------
 (7) _ccp_compare_mode_write_value                         8     4      4     508
                                              0 COMRAM     8     4      4
 ---------------------------------------------------------------------------------
 (7) _Timer3_Write_Value                                   5     1      4     394
                                              0 COMRAM     5     1      4
 ---------------------------------------------------------------------------------
 (6) _Timer3_Interrupt_capture                             0     0      0       0
 ---------------------------------------------------------------------------------
 (6) NULL(Fake)                                            0     0      0       0
 ---------------------------------------------------------------------------------
 (5) _ADC_ISR                                              0     0      0       0
 ---------------------------------------------------------------------------------
 Estimated maximum stack depth 8
 ---------------------------------------------------------------------------------

 Call Graph Graphs:

 _main (ROOT)
   _led_intialize
     _gpio_pin_intialize
       _gpio_pin_direction_intialize
       _gpio_pin_write_logic
   _led_turn_off
     _gpio_pin_write_logic
   _led_turn_on
     _gpio_pin_write_logic
   _mssp_i2c_Init
     _MSSP_Interrupt_config
     ___fladd
       ___fldiv (ARG)
         ___xxtofl (ARG)
       ___xxtofl (ARG)
     ___fldiv
     ___fltol
       ___fladd (ARG)
       ___fldiv (ARG)
       ___xxtofl (ARG)
     ___xxtofl

 _interruptManger (ROOT)
   _ADC_ISR
   _CCP1_ISR
     NULL(Fake) *
     _Timer3_Interrupt_capture *
     _Timer3_Interrupt_compare *
       _Timer3_Write_Value
       _ccp_compare_mode_write_value
   _CCP2_ISR
   _INT0_ISR
     NULL(Fake) *
     _APP_ISR *
       _led_toggle
         _gpio_pin_toggle_logic
   _INT1_ISR
     NULL(Fake) *
     _APP_ISR *
   _MSSP_I2C_BUSC_ISR
   _MSSP_I2C_ISR
     NULL(Fake) *
     _MSSP_I2C_DefaultInterruptHandler *
   _RB4_ISR
     NULL(Fake) *
     _APP_RB4_High *
       i2_led_turn_on
         i2_gpio_pin_write_logic
     _APP_RB4_Low *
       i2_led_turn_off
         i2_gpio_pin_write_logic
   _RB5_ISR
     NULL(Fake) *
     _APP_RB4_High *
     _APP_RB4_Low *
   _RB6_ISR
     NULL(Fake) *
     _APP_RB4_High *
     _APP_RB4_Low *
   _RB7_ISR
     NULL(Fake) *
     _APP_RB4_High *
     _APP_RB4_Low *
   _TM0_ISR
     NULL(Fake) *
     _timer_ISR *
   _TM1_ISR
     NULL(Fake) *
     _Timer1_Default *
   _TM2_ISR
     NULL(Fake) *
     _timer2_ISR *
   _TM3_ISR
     NULL(Fake) *
     _Timer3_Interrupt_capture *
   _USART_RX_ISR
   _USART_TX_ISR

 Address spaces:
Name               Size   Autos  Total    Cost      Usage
BIGRAM             F7F      0       0      48        0.0%
EEDATA             400      0       0       0        0.0%
BITBANK14          100      0       0      32        0.0%
BANK14             100      0       0      33        0.0%
BITBANK13          100      0       0      30        0.0%
BANK13             100      0       0      31        0.0%
BITBANK12          100      0       0      28        0.0%
BANK12             100      0       0      29        0.0%
BITBANK11          100      0       0      26        0.0%
BANK11             100      0       0      27        0.0%
BITBANK10          100      0       0      24        0.0%
BANK10             100      0       0      25        0.0%
BITBANK9           100      0       0      22        0.0%
BANK9              100      0       0      23        0.0%
BITBANK8           100      0       0      20        0.0%
BANK8              100      0       0      21        0.0%
BITBANK7           100      0       0      18        0.0%
BANK7              100      0       0      19        0.0%
BITBANK6           100      0       0      16        0.0%
BANK6              100      0       0      17        0.0%
BITBANK5           100      0       0      14        0.0%
BANK5              100      0       0      15        0.0%
BITBANK4           100      0       0      12        0.0%
BANK4              100      0       0      13        0.0%
BITBANK3           100      0       0      10        0.0%
BANK3              100      0       0      11        0.0%
BITBANK2           100      0       0       8        0.0%
BANK2              100      0       0       9        0.0%
BITBANK1           100      0       0       6        0.0%
BANK1              100     15      B4       7       70.3%
BITBANK15           80      0       0      34        0.0%
BANK15              80      0       0      35        0.0%
BITBANK0            80      0       0       4        0.0%
BANK0               80      0      80       5      100.0%
BITCOMRAM           7E      0       0       0        0.0%
COMRAM              7E     46      69       1       83.3%
BITBIGSFRhlhhhl     18      0       0      37        0.0%
BITBIGSFRhh          D      0       0      36        0.0%
BITBIGSFRlllhh       6      0       0      44        0.0%
BITBIGSFRhlhhhl      5      0       0      38        0.0%
BITBIGSFRllhllh      4      0       0      41        0.0%
BITBIGSFRllllh       4      0       0      45        0.0%
BITBIGSFRllhllh      4      0       0      42        0.0%
BITBIGSFRlllll       4      0       0      46        0.0%
BITBIGSFRllhllh      1      0       0      40        0.0%
BITBIGSFRhlhhhl      1      0       0      39        0.0%
BITBIGSFRllhlll      1      0       0      43        0.0%
BIGSFR               0      0       0     200        0.0%
BITSFR               0      0       0     200        0.0%
SFR                  0      0       0     200        0.0%
STACK                0      0       0       2        0.0%
NULL                 0      0       0       0        0.0%
ABS                  0      0     19D      47        0.0%
DATA                 0      0     19D       3        0.0%
CODE                 0      0       0       0        0.0%


Microchip Technology PIC18 Macro Assembler V2.41 build 20230208172133 
Symbol Table                                                                                   Thu Oct 05 18:38:19 2023

                                 _led_intialize 2B96       ccp_compare_mode_write_value@compare_value 0003  
                                  ___fldiv@aexp 003C                                    ___fldiv@bexp 003B  
                                             _m 0064                                               _x 004E  
                                  ___fldiv@sign 0034                                     _SSPSTATbits 0FC7  
                         _MSSP_Interrupt_config 2D70                                             l303 2A94  
                                           l292 29B4                                             l285 2BB4  
                                           l296 2A14                                             l289 2C10  
                                           l299 2A34                                             l667 2172  
                                           l771 1DBC                                             l693 2D6E  
                                           l765 1CA8                                             l686 229E  
                                           l782 1E7A                                             l847 2DB8  
                                           l768 1DEC                                 __end_of_ADC_ISR 303A  
                                           _ret 00FF                                             prod 0FF3  
                       __end_of_interruptManger 18EE                                             tosl 0FFD  
                                           wreg 0FE8                       _RB5_InterruptHandler_High 00B4  
                                  ?_led_turn_on 0020                                 __end_of_APP_ISR 3002  
                               __end_of_RB4_ISR 2914                                 __end_of_RB5_ISR 2892  
                               __end_of_RB6_ISR 2810                                 __end_of_RB7_ISR 278E  
                                  ___fltol@exp1 0046                                            l2017 24C8  
                                          l2302 1C86                                            l2304 1AE6  
                                          l2313 1B2C                                            l2250 11BA  
                                          l2315 1BA4                                            l2307 1AAA  
                                          l2316 1B92                                            l2248 1206  
                                          l2265 1320                                            l2257 14D6  
                                          l2249 11F4                                            l2274 13F0  
                                          l2275 13DE                                            l2382 1F6A  
                                          l2375 1ED2                                            l2378 202E  
                                          l2389 1FC6                                            l6200 29B8  
                                          l6202 29EE                                            l5420 21AC  
                                          l6220 2A6E                                            l6212 2A16  
                                          l6204 29F0                                            l5422 21B4  
                                          l5430 229C                                            l5414 2174  
                                          l6222 2A70                                            l6214 2A1A  
                                          l6206 2A02                                            l5440 2034  
                                          l5424 2216                                            l5416 2178  
                                          l6224 2A82                                            l6216 2A2C  
                                          l6208 2A12                                            l5442 2046  
                                          l5418 218A                                            l6218 2A38  
                                          l6226 2A92                                            l5452 212E  
                                          l5444 2068                                            l5428 2272  
                                          l6180 2BAC                                            l8100 10E8  
                                          l5446 2070                                            l5454 2170  
                                          l5438 2030                                            l5550 2D04  
                                          l6182 2BB8                                            l6190 2C0E  
                                          l8110 1120                                            l8102 10F8  
                                          l5448 20D2                                            l5552 2D16  
                                          l6184 2BEE                                            l6176 2B96  
                                          l8120 1134                                            l8112 1124  
                                          l8104 110A                                            l5554 2D38  
                                          l6186 2BF0                                            l6178 2B9A  
                                          l6194 2996                                            l8210 1382  
                                          l8202 135A                                            l8130 1148  
                                          l8122 1138                                            l8114 1128  
                                          l8106 1118                                            l5556 2D40  
                                          l5548 2D04                                            l6188 2C02  
                                          l6196 299A                                            l8052 2D70  
                                          l8212 138A                                            l8204 1364  
                                          l8220 13AE                                            l8140 115C  
                                          l8132 114C                                            l8124 113C  
                                          l8116 112C                                            l8108 111C  
                                          l8060 1016                                            l8300 19BA  
                                          l5558 2D6C                                            l6198 29AC  
                                          l8054 2D78                                            l8230 1400  
                                          l8222 13B2                                            l8214 138E  
                                          l8206 1372                                            l8150 11D4  
                                          l8142 1186                                            l8134 1150  
                                          l8126 1140                                            l8118 1130  
                                          l8070 1054                                            l8062 1024  
                                          l8302 19D0                                            l8056 2DB4  
                                          l8240 1466                                            l8232 140C  
                                          l8224 13C0                                            l8216 139E  
                                          l8208 1374                                            l8160 1214  
                                          l8152 11D8                                            l8144 11A2  
                                          l8136 1154                                            l8128 1144  
                                          l8080 1084                                            l8072 1064  
                                          l8064 1032                                            l8320 1A24  
                                          l8304 19E0                                            l8312 1A00  
                                          l8400 23C2                                            l8058 2DB6  
                                          l8250 14AE                                            l8242 1476  
                                          l8234 141A                                            l8226 13D6  
                                          l8218 13A0                                            l8170 1256  
                                          l8162 1224                                            l8154 11E6  
                                          l8146 11B2                                            l8138 1158  
                                          l8090 10AE                                            l8082 1096  
                                          l8074 1066                                            l8066 1034  
                                          l8330 1A76                                            l8322 1A3E  
                                          l8314 1A10                                            l8306 19E8  
                                          l8410 241A                                            l8402 23DA  
                                          l8252 14B0                                            l8244 1496  
                                          l8236 1454                                            l8180 1284  
                                          l8172 1264                                            l8156 11E8  
                                          l8148 11C8                                            l8092 10BE  
                                          l8084 1098                                            l8068 1044  
                                          l8076 106E                                            l8340 1AD2  
                                          l8332 1A86                                            l8324 1A4E  
                                          l8316 1A10                                            l8308 19EC  
                                          l8412 242A                                            l8500 1CDE  
                                          l8254 14B6                                            l8246 149A  
                                          l8238 1456                                            l8190 12F0  
                                          l8182 128E                                            l8174 1270  
                                          l8166 1238                                            l8158 11F2  
                                          l8094 10CE                                            l8086 109E  
                                          l8078 107E                                            l8350 1B12  
                                          l8342 1AD4                                            l8334 1A9A  
                                          l8326 1A5E                                            l8270 191A  
                                          l8262 18EE                                            l8422 2454  
                                          l8414 242E                                            l8406 23EE  
                                          l8510 1DBA                                            l8502 1D66  
                                          l8256 14C4                                            l8248 14A8  
                                          l8192 1300                                            l8176 1274  
                                          l8168 1248                                            l8184 1294  
                                          l8096 10DE                                            l8088 10AC  
                                          l8360 1B4E                                            l8352 1B1C  
                                          l8344 1AE4                                            l8336 1AA8  
                                          l8328 1A6E                                            l8280 1954  
                                          l8272 192A                                            l8264 18FA  
                                          l8440 24B8                                            l8432 247C  
                                          l8424 245E                                            l8416 243C  
                                          l8408 2418                                            l8520 1E2A  
                                          l8512 1DC2                                            l8504 1D80  
                                          l8600 24F4                                            l8258 14C6  
                                          l8186 12BA                                            l8194 1310  
                                          l8178 1282                                            l8098 10E0  
                                          l8370 1BC0                                            l8362 1B5C  
                                          l8354 1B2A                                            l8346 1AF6  
                                          l8338 1AB4                                            l8290 1980  
                                          l8282 195A                                            l8274 193A  
                                          l8266 1908                                            l8434 2488  
                                          l8426 2468                                            l8450 1EE2  
                                          l8530 1E68                                            l8522 1E2C  
                                          l8514 1DF0                                            l8506 1D9A  
                                          l8610 254E                                            l8602 2506  
                                          l8196 1336                                            l8188 12EE  
                                          l8380 1C2C                                            l8372 1BCE  
                                          l8364 1B8A                                            l8348 1B0C  
                                          l8356 1B3C                                            l8292 1990  
                                          l8284 1960                                            l8276 193C  
                                          l8268 190A                                            l8436 2498  
                                          l8460 1F20                                            l8452 1EF8  
                                          l8444 1E7E                                            l8532 1E74  
                                          l8524 1E46                                            l8516 1E0A  
                                          l8508 1DA0                                            l8604 2516  
                                          l8198 1346                                            l8390 1C7A  
                                          l8382 1C46                                            l8374 1BF8  
                                          l8358 1B4A                                            l8294 19A0  
                                          l8286 196E                                            l8278 1944  
                                          l8438 24A8                                            l8470 1FA8  
                                          l8462 1F52                                            l8446 1E8E  
                                          l8526 1E4C                                            l8518 1E10  
                                          l8534 1E76                                            l8606 2528  
                                          l8392 1C7C                                            l8384 1C62  
                                          l8368 1BB4                                            l8376 1BFC  
                                          l8296 19A2                                            l8288 1970  
                                          l8480 1FFE                                            l8472 1FB6  
                                          l8464 1F54                                            l8456 1F0C  
                                          l8448 1E9C                                            l8528 1E66  
                                          l8608 253C                                            l8386 1C66  
                                          l8378 1C16                                            l8298 19AA  
                                          l8482 200E                                            l8474 1FD4  
                                          l8466 1F60                                            l8458 1F14  
                                          l8490 1C88                                            l8388 1C74  
                                          l8484 201C                                            l8476 1FD6  
                                          l8468 1F9C                                            l8492 1C8E  
                                          l8486 201E                                            l8478 1FDA  
                                          l8494 1CA0                                            l8590 24E6  
                                          l8672 2286                                            l8496 1CAA  
                                          l8592 24E8                                            l8674 215A  
                                          l8498 1CC4                                            l8594 24EC  
                                          l8586 24CA                                            l8596 24EE  
                                          l8588 24E4                                            l8598 24F0  
                                          STR_1 1011                                            _LATA 0F89  
                                          _LATB 0F8A                                            _LATC 0F8B  
                                          _LATD 0F8C                                            _LATE 0F8D  
                                          u4600 2068                                            u4601 2064  
                                  fp__timer_ISR 0000                                            u4630 2146  
                                          u4614 2090                                            u4550 218A  
                                          u4631 2140                                            u4615 208C  
                                          u4551 2186                                            u4640 2148  
                                          u4624 20F2                                            u4560 21AC  
                                          u4625 20EE                                            u4561 21A8  
                                          u4590 2046                                            u4574 21D4  
                                          u4750 2D16                                            u4591 2042  
                                          u4575 21D0                                            u4751 2D12  
                                          u4584 2236                                            u4760 2D38  
                                          u9000 2450                                            u4585 2232  
                                          u4761 2D34                                            u9001 244C  
                                          u9010 2478                                            u9011 2474  
                                          u5740 2BAC                                            u9020 2498  
                                          u9100 1FC6                                            u5741 2BA8  
                                          u9021 2494                                            u9101 1FC2  
                                          u9030 24A8                                            u9110 1FD4  
                                          u9031 24A4                                            u9111 1FD0  
                                          u5760 29AC                                            u8400 10BE  
                                          u9120 200E                                            u9040 1E8E  
                                          u9200 1E2A                                            u5761 29A8  
                                          u8401 10BA                                            u9121 200A  
                                          u9041 1E8A                                            u9201 1E26  
                                          u8410 10CE                                            u9130 201C  
                                          u9050 1E9C                                            u9210 1E46  
                                          u5755 2C00                                            u8411 10CA  
                                          u9131 2018                                            u9051 1E98  
                                          u9211 1E42                                            u5780 2A2C  
                                          u8500 1214                                            u8420 110A  
                                          u9060 1EF8                                            u9220 1E66  
                                          u9140 1CA0                                            u5757 2C02  
                                          u5781 2A28                                            u8501 1210  
                                          u8421 1106                                            u9061 1EF4  
                                          u9221 1E62                                            u9141 1C9C  
                                          u8510 1224                                            u8430 1118  
                                          u8350 1032                                            u9070 1F4E  
                                          u9150 1CC4                                            u5775 2A00  
                                          u8511 1220                                            u8431 1114  
                                          u8351 102E                                            u9071 1F4A  
                                          u9151 1CC0                                            u8600 1382  
                                          u8520 1256                                            u8440 1186  
                                          u8360 1044                                            u9080 1F98  
                                          u9160 1D80                                            u9240 2528  
                                          u5777 2A02                                            u8601 137E  
                                          u8521 1252                                            u8441 1182  
                                          u8361 1040                                            u9081 1F94  
                                          u9161 1D7C                                            u9241 2524  
                                          u8610 139E                                            u8530 1264  
                                          u8450 119E                                            u8370 1054  
                                          u9090 1FB6                                            u9170 1D9A  
                                          u9250 254E                                            u5795 2A80  
                                          u8611 139A                                            u8531 1260  
                                          u8451 1198                                            u8371 1050  
                                          u9091 1FB2                                            u9171 1D96  
                                          u9251 254A                                            u8700 1476  
                                          u8620 13AE                                            u8540 1282  
                                          u8460 11A0                                            u8380 1096  
                                          u9180 1DBA                                            u5797 2A82  
                                          u8701 1472                                            u8621 13AA  
                                          u8541 127E                                            u8381 1092  
                                          u9181 1DB6                                            u8710 1496  
                                          u8630 13C0                                            u8550 12BA  
                                          u8470 11C8                                            u8390 10AC  
                                          u9190 1E0A                                            u8711 1492  
                                          u8631 13BC                                            u8551 12B6  
                                          u8471 11C4                                            u8391 10A8  
                                          u9191 1E06                                            u8720 14A8  
                                          u8640 13D6                                            u8560 1300  
                                          u8480 11E6                                            u8800 19D0  
                                          u8721 14A4                                            u8641 13D2  
                                          u8561 12FC                                            u8481 11E2  
                                          u8801 19CC                                            u8730 14C4  
                                          u8650 13EC                                            u8570 1336  
                                          u8490 1206                                            u8810 1A10  
                                          u8731 14C0                                            u8651 13E8  
                                          u8571 1332                                            u8491 1202  
                                          u8811 1A0C                                            u8660 1400  
                                          u8580 1346                                            u8900 1B8A  
                                          u8820 1A86                                            u8740 1908  
                                          u8661 13FC                                            u8581 1342  
                                          u8901 1B86                                            u8821 1A82  
                                          u8741 1904                                            u8670 141A  
                                          u8590 1372                                            u8910 1BA0  
                                          u8830 1AA8                                            u8750 191A  
                                          u8671 1416                                            u8591 136E  
                                          u8911 1B9C                                            u8831 1AA4  
                                          u8751 1916                                            u8680 1454  
                                          u8920 1BB4                                            u8840 1AD2  
                                          u8760 192A                                            u8681 1450  
                                          u8921 1BB0                                            u8841 1ACE  
                                          u8761 1926                                            u8690 1466  
                                          u8930 1BCE                                            u8850 1AF6  
                                          u8770 196E                                            u8691 1462  
                                          u8931 1BCA                                            u8851 1AF2  
                                          u8771 196A                                            u8940 1C16  
                                          u8860 1B0C                                            u8780 1980  
                                          u8941 1C12                                            u8861 1B08  
                                          u8781 197C                                            u8950 1C46  
                                          u8870 1B2A                                            u8790 1990  
                                          u8951 1C42                                            u8871 1B26  
                                          u8791 198C                                            u8960 1C74  
                                          u8880 1B4A                                            u8961 1C70  
                                          u8881 1B46                                            u8890 1B5C  
                                          u8970 23DA                                            u8891 1B58  
                                          u8971 23D6                                            u8980 240E  
                                          u8990 243C                                            u8991 2438  
                                          u8985 2404                                            _TMR2 0FCC  
                               __end_of_TM0_ISR 2E66                                 __end_of_TM1_ISR 2E2E  
                               __end_of_TM2_ISR 2E9A                                 __end_of_TM3_ISR 2F88  
                                   _usart_obj_1 0100                                    _ccp1_preload 00C8  
                                          _lcd1 011B                                            _main 24CA  
                      _RB4_InterruptHandler_Low 00B6                                __end_of_CCP1_ISR 2F5A  
                               _ccp_obj_capture 0110                                            _hour 0062  
                              __end_of_CCP2_ISR 3036                                            fsr2h 0FDA  
                                          indf2 0FDF                                            fsr1l 0FE1  
                                          fsr2l 0FD9                                            btemp 006A  
                      _RB7_InterruptHandler_Low 00AA                                            prodh 0FF4  
                                          prodl 0FF3                                            start 000E  
                           i2led_turn_on@config 000E                                 ___fldiv@new_exp 0035  
                                 ?_led_turn_off 0020                                  ?_led_intialize 0024  
                          _TM1_InterruptHandler 00A4                                    ___param_bank 0000  
                        ?_gpio_pin_toggle_logic 0001                            _gpio_pin_write_logic 2174  
                              __end_of_INT0_ISR 2F2A                                __end_of_INT1_ISR 2EFA  
                                 fp__timer2_ISR 0000                                   ___fltol@sign1 0045  
                               __end_of___fladd 14D8                                           ?_main 0001  
                                         _ADC_1 0151                                 __end_of___fldiv 1C88  
                                         _EEADR 0FA9                                 __end_of___fltol 24CA  
                                         i2l310 2C8C                                           i2l303 2B14  
                                         i2l306 2C30                                           i2l292 2B34  
                                         i2l461 3038                                           i2l296 2B94  
                                         i2l707 25F6                                           i2l299 2AB4  
                                         i2l572 2D00                                           i2l574 2D02  
                                         i2l582 3034                                           i2l921 1552  
                                         i2l578 2F58                                           i2l930 1682  
                                         i2l851 2EC8                                           i2l923 1572  
                                         i2l940 17B2                                           i2l932 16C6  
                                         i2l925 15B6                                           i2l917 1512  
                                         i2l686 23C0                                           i2l950 1852  
                                         i2l942 17D2                                           i2l934 170A  
                                         i2l855 3030                                           i2l919 1532  
                                         i2l952 1872                                           i2l944 17F2  
                                         i2l936 174E                                           i2l928 163E  
                                         i2l954 1892                                           i2l946 1812  
                                         i2l938 1792                                           i2l956 18B2  
                                         i2l948 1832                                           i2l959 18D2  
                                         _RCREG 0FAE                             relay_turn_off@F3020 0051  
                                         _TMR0H 0FD7                                           _TMR1H 0FCF  
                                         _TMR0L 0FD6                                           _TMR1L 0FCE  
                                         _TMR3H 0FB3                                           _TMR3L 0FB2  
                                         _SPBRG 0FAF                                           _PORTA 0F80  
                                         _PORTB 0F81                                           _PORTC 0F82  
                                         _PORTD 0F83                                           _PORTE 0F84  
             ccp_compare_mode_write_value@F3067 00C6                                           _TRISA 0F92  
                                         _TRISB 0F93                                           _TRISC 0F94  
                                         _TRISD 0F95                                           _TRISE 0F96  
                             _timer_obj_capture 017B                                           _TXREG 0FAD  
                                         _led_1 0069                                           _led_2 0060  
                                         _count 004D                                           _seg_1 00EF  
                                         pclath 0FFA                  ??_ccp_compare_mode_write_value 0005  
                                         pclatu 0FFB                                           tablat 0FF5  
                                         ttemp5 006B                                           ttemp6 006E  
                                         ttemp7 0072                                           status 0FD8  
                              ??i2_led_turn_off 000C                                           wtemp8 006B  
                          i2led_turn_off@config 000E                                  ??_led_turn_off 0022  
                               _timer3_overflow 0082                     _I2C_DefaultInterruptHandler 00C2  
                               __initialization 25F8                                    __end_of_main 2566  
                         ?_gpio_pin_write_logic 0016                                  _second_capture 0084  
                        ?_MSSP_Interrupt_config 0016                     i2gpio_pin_write_logic@logic 0003  
                                     ??_ADC_ISR 0001                                mssp_i2c_Init@ret 01B3  
                          __end_of_APP_RB4_High 2FF0                                          ??_main 0047  
                     ?_Timer3_Interrupt_capture 0001                                       ??_APP_ISR 000D  
                                 __activetblptr 0003                       ?_Timer3_Interrupt_compare 0001  
                              led_turn_on@F3021 0056                                       ??_RB4_ISR 000F  
                                     ??_RB5_ISR 000F                                       ??_RB6_ISR 000F  
                                     ??_RB7_ISR 000F                                ?_interruptManger 0001  
                                     ??_TM0_ISR 0001                                       ??_TM1_ISR 0001  
                                     ??_TM2_ISR 0001                                       ??_TM3_ISR 0001  
                                _Timer1_Default 3014                                          _ADRESH 0FC4  
                                        _EEADRH 0FAA                                          _ADRESL 0FC3  
                                        _EEDATA 0FA8                                          _CCPR1H 0FBF  
                                        _CCPR2H 0FBC                                          _CCPR1L 0FBE  
                                        _CCPR2L 0FBB                                          _EECON2 0FA7  
                              RB5_ISR@RB_Source 000F                                          i2l1010 2F28  
                                        i2l1018 2EF8                                          i2l1027 2912  
                                        i2l1036 2890                                          i2l1045 280E  
                                        i2l1054 278C                                          i2l1207 2E64  
                                        i2l1325 2E98                                          i2l1361 2FAE  
                                        i2l1362 2FB0                                          i2l1530 2DF4  
                                        i2l1347 2F86                                          i2l1524 2DF0  
                                        i2l1525 2DDA                                          i2l1285 2E2C  
                                        i2l1702 3000                                          i2l1527 2DE8  
                                        i2l1711 303A                                          i2l1528 2DF2  
                                        i2l1705 2FEE                                          i2l1714 3012  
                                        i2l1708 2FDC                                          i2l1717 301A  
                                        i2l1493 3028                                          i2l1488 3026  
                                        i2l1497 302C                                          i2l1684 270A  
                                        i2l1695 3022                                          i2l5400 22D4  
                                        i2l5402 22D8                                          i2l5500 2F88  
                                        i2l5404 233A                                          i2l5502 2F8C  
                                        i2l6310 2EB0                                          i2l5504 2F9E  
                                        i2l6320 2F10                                          i2l6312 302E  
                                        i2l5408 2396                                          i2l5520 2B6E  
                                        i2l5512 2B16                                          i2l6400 2E02  
                                        i2l5506 2FA6                                          i2l6250 2F2C  
                                        i2l6322 2ECA                                          i2l6306 2E9A  
                                        i2l5522 2B70                                          i2l5514 2B1A  
                                        i2l5530 2A96                                          i2l6330 2896  
                                        i2l6402 2E14                                          i2l6410 2F5A  
                                        i2l6244 3036                                          i2l5508 2FAA  
                                        i2l6252 2F40                                          i2l6316 2EFA  
                                        i2l6324 2ECC                                          i2l6308 2E9C  
                                        i2l5524 2B82                                          i2l5516 2B2C  
                                        i2l5540 2AF0                                          i2l5532 2A9A  
                                        i2l6340 28FA                                          i2l6332 28A6  
                                        i2l6404 2E66                                          i2l6412 2F6E  
                                        i2l6254 3032                                          i2l5390 259E  
                                        i2l5382 2566                                          i2l5470 2C6A  
                                        i2l5462 2C12                                          i2l6318 2EFC  
                                        i2l6326 2EE0                                          i2l5518 2B38  
                                        i2l5526 2B92                                          i2l5542 2B02  
                                        i2l5534 2AAC                                          i2l6334 28BA  
                                        i2l6350 2854                                          i2l6342 2812  
                                        i2l6406 2E6C                                          i2l6414 3024  
                                        i2l5480 2C8E                                          i2l6248 2F2A  
                                        i2l5384 2566                                          i2l5472 2C6C  
                                        i2l5464 2C16                                          i2l5536 2AB8  
                                        i2l5544 2B12                                          i2l6336 28D6  
                                        i2l6328 2894                                          i2l6352 2864  
                                        i2l6344 2814                                          i2l6360 27A2  
                                        i2l6408 2E80                                          i2l5490 2CD0  
                                        i2l5482 2C92                                          i2l5386 2578  
                                        i2l5474 2C7E                                          i2l5466 2C28  
                                        i2l5650 2DCA                                          i2l5394 22A0  
                                        i2l5538 2AEE                                          i2l6338 28E6  
                                        i2l6354 2878                                          i2l6346 2824  
                                        i2l6362 27B6                                          i2l6370 270E  
                                        i2l5492 2CDC                                          i2l5484 2C9A  
                                        i2l5660 26B0                                          i2l5388 259A  
                                        i2l5468 2C34                                          i2l5476 2C8A  
                                        i2l5652 2DD8                                          i2l5396 22A0  
                                        i2l6348 2838                                          i2l6364 27D2  
                                        i2l6356 2790                                          i2l6380 2760  
                                        i2l6372 2710                                          i2l6428 302A  
                                        i2l7500 1700                                          i2l5494 2CF8  
                                        i2l5486 2CAC                                          i2l5670 2706  
                                        i2l5662 26C8                                          i2l5654 2686  
                                        i2l5398 22B2                                          i2l6366 27E2  
                                        i2l6358 2792                                          i2l6382 2774  
                                        i2l6374 2720                                          i2l6390 2E3A  
                                        i2l7510 1744                                          i2l7502 1704  
                                        i2l7430 1520                                          i2l5496 2D00  
                                        i2l5488 2CB4                                          i2l5664 26D4  
                                        i2l5656 2688                                          i2l5672 301C  
                                        i2l5648 2DBA                                          i2l6368 27F6  
                                        i2l6376 2734                                          i2l6392 2E4C  
                                        i2l6384 2E2E                                          i2l5680 300C  
                                        i2l7520 1788                                          i2l7512 1748  
                                        i2l7504 1718                                          i2l7440 156E  
                                        i2l7432 152E                                          i2l7424 14F2  
                                        i2l5666 26E6                                          i2l5658 26A0  
                                        i2l5674 2FF0                                          i2l6378 2750  
                                        i2l6386 2E30                                          i2l5682 3014  
                                        i2l6394 2DF6                                          i2l7530 17CE  
                                        i2l7522 178C                                          i2l7514 175C  
                                        i2l7506 1726                                          i2l7450 15B0  
                                        i2l7442 1580                                          i2l7434 1540  
                                        i2l7426 1500                                          i2l5668 26FE  
                                        i2l5676 2FDE                                          i2l6388 2E36  
                                        i2l6396 2DF8                                          i2l7540 1820  
                                        i2l7532 17E0                                          i2l7524 17A0  
                                        i2l7516 176A                                          i2l7508 1734  
                                        i2l7460 15F4                                          i2l7452 15C4  
                                        i2l7444 158E                                          i2l7436 154E  
                                        i2l7428 150E                                          i2l5678 2FCC  
                                        i2l6398 2DFE                                          i2l7550 186E  
                                        i2l7542 182E                                          i2l7534 17EE  
                                        i2l7526 17AE                                          i2l7518 1778  
                                        i2l7470 1634                                          i2l7454 15D2  
                                        i2l7462 15FA                                          i2l7446 159C  
                                        i2l7438 1560                                          i2l7560 18C0  
                                        i2l7552 1880                                          i2l7544 1840  
                                        i2l7536 1800                                          i2l7528 17C0  
                                        i2l7480 1678                                          i2l7472 1638  
                                        i2l7464 1608                                          i2l7456 15E0  
                                        i2l7448 15AC                                          i2l7562 18CE  
                                        i2l7554 188E                                          i2l7546 184E  
                                        i2l7538 180E                                          i2l7490 16BC  
                                        i2l7482 167C                                          i2l7474 164C  
                                        i2l7466 1616                                          i2l7458 15F0  
                                        i2l7556 18A0                                          i2l7548 1860  
                                        i2l7492 16C0                                          i2l7484 1690  
                                        i2l7476 165A                                          i2l7468 1624  
                                        i2l7558 18AE                                          i2l7494 16D4  
                                        i2l7486 169E                                          i2l7478 1668  
                                        i2l7496 16E2                                          i2l7488 16AC  
                                        i2l7498 16F0                                          i2l8676 23AA  
                                        _SPBRGH 0FB0                                          _SSPADD 0FC8  
                                        _SSPBUF 0FC9                                __end_of___xxtofl 2030  
                                 _tris_register 012F                                 ??_led_intialize 0026  
                                     ??___fladd 019F                    MSSP_Interrupt_config@i2c_obj 0016  
                                     ??___fldiv 002C                                       ??___fltol 01AB  
                              led_intialize@led 0024                                led_intialize@ret 0027  
                                        _intx_0 0164                                          clear_0 265E  
                                        clear_1 266A                                          clear_2 2676  
                                        _second 0061                                          _timer0 0141  
                                        _timer2 00DD                                          isa$std 0001  
                                     ?_CCP1_ISR 0001                          __end_of_Timer1_Default 301C  
                                  __pdataCOMRAM 0060                                       ?_CCP2_ISR 0001  
                                  __mediumconst 0000                                          tblptrh 0FF7  
                                        tblptrl 0FF6                                          tblptru 0FF8  
                                  _ccp_callback 0048                            _TM2_InterruptHandler 00A0  
                                  ___xxtofl@arg 0020                                    ___xxtofl@exp 001F  
                                  ___xxtofl@val 0016                                      __accesstop 0080  
                       __end_of__initialization 267C                                       ?_INT0_ISR 0001  
                                     ?_INT1_ISR 0001                                   ___rparam_used 0001  
                                    ___fltol@f1 01A7                               i2led_turn_off@led 000A  
                             i2led_turn_off@ret 000D                          ??_gpio_pin_write_logic 0019  
                                __pcstackCOMRAM 0001                                    __pidataBANK0 2FB2  
                                  __pidataBANK1 2914                       _USART_TX_InterruptHandler 0098  
                            _Timer3_Write_Value 2F88                    convert_short_to_string@F3169 0199  
                                    ??_CCP1_ISR 0009                                      ??_CCP2_ISR 0001  
                           ?_Timer3_Write_Value 0001                                 ?_Timer1_Default 0001  
                          __end_of_led_turn_off 2A96                      _total_period_Micro_capture 00E3  
                                    _dc_motor_1 00FC                                      _dc_motor_2 00FA  
                       Timer3_Write_Value@value 0003                         Timer3_Write_Value@timer 0001  
                                    __pbssBANK0 0080                                      __pbssBANK1 0181  
                         _INT0_InterruptHandler 00BE                                      ??_INT0_ISR 000D  
                                    ??_INT1_ISR 000D                            mssp_i2c_Init@i2c_obj 01AF  
                       ??_gpio_pin_toggle_logic 0003                            ??_Timer3_Write_Value 0005  
                          relay_intialize@F3010 0053                         dc_motor_turn_left@F3031 005A  
                       dc_motor_turn_left@F3029 005B                           __end_of_mssp_i2c_Init 1E7C  
                             led_turn_off@F3026 0055                                   led_toggle@led 0008  
                                 led_toggle@ret 000B                                         _ADC_ISR 3036  
                               led_toggle@F3031 0054                                         _APP_ISR 2FF0  
                                       _RB4_ISR 2892                                         _RB5_ISR 2810  
                                       _RB6_ISR 278E                                         _RB7_ISR 270C  
                             led_turn_on@config 0024                                       ?___xxtofl 0016  
                                 ?_MSSP_I2C_ISR 0001                       _RB6_InterruptHandler_High 00B0  
                                       _TM0_ISR 2E2E                                         _TM1_ISR 2DF6  
                                       _TM2_ISR 2E66                                         _TM3_ISR 2F5A  
                                 i2_led_turn_on 2B16                                      _led_toggle 2C12  
                                  _APP_RB4_High 2FDE                        _RB6_InterruptHandler_Low 00AE  
                                       _i2c_obj 00D0                __end_of_Timer3_Interrupt_capture 3024  
                          _ADC_InterruptHandler 00CE                                         __Hparam 0000  
              __end_of_Timer3_Interrupt_compare 270C                                         __Lparam 0000  
                                       _Reslt_1 0090                                         _Reslt_2 008E  
                       ??_MSSP_Interrupt_config 0018                            _TM3_InterruptHandler 009C  
                                       ___fladd 1016                                         ___fldiv 18EE  
                                       ___fltol 23C2                               __end_of_btn_value 1011  
                                  __psmallconst 1000                                       _CHR_4_LCD 0158  
                    __end_of_gpio_pin_intialize 2D70                                         __pcinit 25F8  
                                       __ramtop 1000                                         __ptext0 24CA  
                                       __ptext1 1C88                                         __ptext2 1E7C  
                                       __ptext3 23C2                                         __ptext4 18EE  
                                       __ptext5 1016                                         __ptext6 2D70  
                                       __ptext7 2996                                         __ptext8 2A16  
                                       __ptext9 2B96                                       _T0CONbits 0FD5  
                                       _intRB_0 015E                                         _btn_low 00F4  
                                     _T1CONbits 0FCD                                  ??_MSSP_I2C_ISR 0001  
                                     _T2CONbits 0FCA                                         _keypad1 0149  
                                    ??___xxtofl 001A                                       _T3CONbits 0FB1  
                                       _relay_1 00FE                                         _minutes 0063  
                                    fp__APP_ISR 0000                                  ?i2_led_turn_on 000A  
                      ??i2_gpio_pin_write_logic 0004                                  __pintcode_body 14D8  
                          end_of_initialization 267C                         dc_motor_intialize@F3015 005F  
                       dc_motor_intialize@F3017 005E                                RB6_ISR@RB_Source 000F  
                                       int_func 14D8                              dc_motor_stop@F3036 0059  
                            dc_motor_stop@F3038 0058                               __end_of_timer_ISR 303C  
                                    _slave2_ack 0050                           gpio_pin_intialize@ret 0023  
                                    _timer2_ISR 300C                                       _RCSTAbits 0FAB  
                                       postdec1 0FE5                                         postdec2 0FDD  
                                    _timer2_obj 0181                                         postinc0 0FEE  
                                       postinc2 0FDE            __end_of_ccp_compare_mode_write_value 2D04  
                  _ccp_compare_mode_write_value 2C8E                 ccp_compare_mode_write_value@ccp 0001  
               ccp_compare_mode_write_value@ret 0006                           _INT1_InterruptHandler 00BC  
                                     _PORTBbits 0F81                                   ??_APP_RB4_Low 000F  
                                   ___fladd@grs 01A6            __end_of_gpio_pin_direction_intialize 2174  
                  _gpio_pin_direction_intialize 2030                                   ___xxtofl@sign 001E  
                                     _TRISCbits 0F94                                     ___fldiv@grs 0037  
                                   ___fldiv@rem 0030                                   ?_USART_RX_ISR 0001  
                                   ?_led_toggle 0008                                   ?_USART_TX_ISR 0001  
                                   _CCP1CONbits 0FBD                                     _CCP2CONbits 0FBA  
                                     _TXSTAbits 0FAC                                  _LM35_celisis_1 004B  
                                _LM35_celisis_2 004A                                    _led_turn_off 2A16  
                         __end_of_led_intialize 2C12                              relay_turn_on@F3015 0052  
                                _timer0_counter 0139                        _Timer3_Interrupt_capture 301C  
                   fp__Timer3_Interrupt_capture 0000                                  _timer1_counter 0086  
                      _Timer3_Interrupt_compare 2686                                ??_Timer1_Default 0001  
                   fp__Timer3_Interrupt_compare 0000                                     _BAUDCONbits 0FB8  
                                 __pidataCOMRAM 3002                                  _timer3_compare 0175  
                                _timer0_preload 00A6                                  _timer1_preload 00A2  
                 ?_ccp_compare_mode_write_value 0001                                       _Convert_1 0193  
                                     _Convert_2 018D                         _CCP_Second_capture_flag 0049  
                                _timer2_preload 009E                                 ??i2_led_turn_on 000C  
                           start_initialization 25F8                                   ??_led_turn_on 0022  
                                _timer3_preload 009A                               _MSSP_I2C_BUSC_ISR 302E  
                                  _freq_capture 0080                   ?_gpio_pin_direction_intialize 0016  
                            ?_MSSP_I2C_BUSC_ISR 0001                                    _lat_register 00E5  
                                ??_USART_RX_ISR 0001                             __end_of_APP_RB4_Low 2FDE  
                                ??_USART_TX_ISR 0001                           Timer3_Write_Value@ret 0005  
                           ??_MSSP_I2C_BUSC_ISR 0001                                 led_turn_off@led 0020  
                               led_turn_off@ret 0023                            __end_of_MSSP_I2C_ISR 2ECA  
                 __end_of_gpio_pin_toggle_logic 25F8                                     ?_timer2_ISR 0001  
                                _slave_rec_data 004F                       _USART_RX_InterruptHandler 0096  
                                   __pdataBANK0 00E5                                     __pdataBANK1 0100  
                                      ?_ADC_ISR 0001                                       ___fladd@a 0041  
                                      ?_APP_ISR 0001                                       ___fladd@b 003D  
                     __end_of_MSSP_I2C_BUSC_ISR 3032                                     _ccp_compare 016A  
                                     ___fldiv@a 0028                                       ___fldiv@b 0024  
                                      ?_RB4_ISR 0001                                        ?_RB5_ISR 0001  
                                      ?_RB6_ISR 0001                                        ?_RB7_ISR 0001  
                                   __pbssCOMRAM 0047     _I2C_Report_Write_Collision_InterruptHandler 00C4  
                                 __pcstackBANK1 019F                                i2led_turn_on@led 000A  
                                      ?_TM0_ISR 0001                                        ?_TM1_ISR 0001  
                              i2led_turn_on@ret 000D                                        ?_TM2_ISR 0001  
                                      ?_TM3_ISR 0001                             __end_of_led_turn_on 2A16  
                         _INT2_InterruptHandler 00BA                  gpio_pin_write_logic@pin_config 0016  
              i2gpio_pin_write_logic@pin_config 0001                 gpio_pin_direction_intialize@ret 001E  
                                     __pnvBANK0 00FF            _USART_OVERRUN_ERROR_InterruptHandler 0092  
                             ??_interruptManger 0010                                       __pintcode 0008  
                                      ?___fladd 003D                          i2_gpio_pin_write_logic 22A0  
                                      ?___fldiv 0024                                        ?___fltol 01A7  
                 __end_of_MSSP_Interrupt_config 2DBA                       gpio_pin_write_logic@logic 0018  
                                     _btn_value 1001                                     __smallconst 1000  
                                      _CCP1_ISR 2F2A                                        _CCP2_ISR 3032  
                                   _APP_RB4_Low 2FCC                       _RB4_InterruptHandler_High 00B8  
                           led_intialize@config 0028                       _RB7_InterruptHandler_High 00AC  
                            _gpio_pin_intialize 2D04                  ??_gpio_pin_direction_intialize 0018  
                                      _INT0_ISR 2EFA                                        _INT1_ISR 2ECA  
                      _RB5_InterruptHandler_Low 00B2                                RB7_ISR@RB_Source 000F  
                                      _RB4_Flag 0068                                        _RB5_Flag 0067  
                                      _RB6_Flag 0066                                        _RB7_Flag 0065  
                           ?_gpio_pin_intialize 0020                                        _PIE1bits 0F9D  
                                      _PIE2bits 0FA0  ccp_compare_mode_write_value@capture_temp_value 0007  
                            led_turn_off@config 0024                                        i2u601_40 28E6  
                                      i2u600_48 28C0                                        i2u601_41 28E2  
                                      i2u600_49 28D2                                        _PIR1bits 0F9E  
                                      i2u602_40 28FA                                        i2u610_40 27A2  
                                      i2u602_41 28F6                                        i2u610_41 279E  
                                      i2u450_44 25BE                                        i2u450_45 25BA  
                                      i2u451_40 22B2                                        i2u611_40 27B6  
                                      i2u451_41 22AE                                        i2u611_41 27B2  
                                      _PIR2bits 0FA1                                        i2u452_40 22D4  
                                      i2u603_48 2900                                        i2u604_40 2824  
                                      i2u620_40 2774                                        i2u452_41 22D0  
                                      i2u603_49 2912                                        i2u604_41 2820  
                                      i2u620_41 2770                                        i2u605_40 2838  
                                      i2u613_40 27E2                                        i2u612_48 27BC  
                                      i2u605_41 2834                                        i2u613_41 27DE  
                                      i2u612_49 27CE                                        i2u453_44 22F8  
                                      i2u453_45 22F4                                        i2u470_40 2F9E  
                                      i2u614_40 27F6                                        i2u621_48 277A  
                                      i2u622_40 2E4C                                        i2u470_41 2F9A  
                                      i2u614_41 27F2                                        i2u621_49 278C  
                                      i2u622_41 2E48                                        i2u454_44 235A  
                                      i2u454_45 2356                                        i2u471_40 2B2C  
                                      i2u607_40 2864                                        i2u606_48 283E  
                                      i2u471_41 2B28                                        i2u607_41 2860  
                                      i2u606_49 2850                                        i2u448_40 2578  
                                      i2u608_40 2878                                        i2u615_48 27FC  
                                      i2u616_40 2720                                        i2u623_48 2E52  
                                      i2u624_40 2E14                                        i2u448_41 2574  
                                      i2u608_41 2874                                        i2u615_49 280E  
                                      i2u616_41 271C                                        i2u623_49 2E64  
                                      i2u624_41 2E10                                        i2u472_45 2B80  
                                      i2u472_47 2B82                                        i2u449_40 259A  
                                      i2u465_40 2C28                                        i2u473_40 2AAC  
                                      i2u617_40 2734                                        i2u449_41 2596  
                                      i2u465_41 2C24                                        i2u473_41 2AA8  
                                      i2u617_41 2730                                        i2u609_48 287E  
                                      i2u625_48 2E1A                                        i2u626_40 2E80  
                                      i2u730_40 1500                                        i2u609_49 2890  
                                      i2u625_49 2E2C                                        i2u626_41 2E7C  
                                      i2u730_41 14FC                                        i2u466_45 2C7C  
                                      i2u474_45 2B00                                        i2u466_47 2C7E  
                                      i2u474_47 2B02                                        i2u467_40 2CAC  
                                      i2u619_40 2760                                        i2u618_48 273A  
                                      i2u731_40 150E                                        i2u467_41 2CA8  
                                      i2u619_41 275C                                        i2u618_49 274C  
                                      i2u731_41 150A                                        i2u468_40 2CD0  
                                      i2u484_40 2DCA                                        i2u627_48 2E86  
                                      i2u628_40 2F6E                                        i2u740_40 159C  
                                      i2u732_40 1520                                        i2u468_41 2CCC  
                                      i2u484_41 2DC6                                        i2u627_49 2E98  
                                      i2u628_41 2F6A                                        i2u740_41 1598  
                                      i2u732_41 151C                                        i2u469_40 2CF8  
                                      i2u581_40 2F40                                        i2u485_40 2DD8  
                                      i2u741_40 15AC                                        i2u733_40 152E  
                                      i2u469_41 2CF4                                        i2u581_41 2F3C  
                                      i2u485_41 2DD4                                        i2u741_41 15A8  
                                      i2u733_41 152A                                        i2u486_40 2DE8  
                                      i2u629_48 2F74                                        i2u750_40 164C  
                                      i2u742_40 15C4                                        i2u734_40 1540  
                                      i2u486_41 2DE4                                        i2u629_49 2F86  
                                      i2u750_41 1648                                        i2u742_41 15C0  
                                      i2u734_41 153C                                        i2u487_40 26B0  
                                      i2u582_48 2F46                                        i2u751_40 165A  
                                      i2u743_40 15D2                                        i2u735_40 154E  
                                      i2u487_41 26AC                                        i2u582_49 2F58  
                                      i2u751_41 1656                                        i2u743_41 15CE  
                                      i2u735_41 154A                                        i2u488_40 26E6  
                                      i2u592_40 2EB0                                        i2u760_40 16F0  
                                      i2u752_40 1668                                        i2u744_40 15E0  
                                      i2u736_40 1560                                        i2u488_41 26E2  
                                      i2u592_41 2EAC                                        i2u760_41 16EC  
                                      i2u752_41 1664                                        i2u744_41 15DC  
                                      i2u736_41 155C                                        i2u761_40 1700  
                                      i2u753_40 1678                                        i2u745_40 15F0  
                                      i2u737_40 156E                                        i2u761_41 16FC  
                                      i2u753_41 1674                                        i2u745_41 15EC  
                                      i2u737_41 156A                                        i2u594_40 2F10  
                                      i2u593_48 2EB6                                        i2u770_40 17A0  
                                      i2u762_40 1718                                        i2u754_40 1690  
                                      i2u746_40 1608                                        i2u738_40 1580  
                                      i2u594_41 2F0C                                        i2u593_49 2EC8  
                                      i2u770_41 179C                                        i2u762_41 1714  
                                      i2u754_41 168C                                        i2u746_41 1604  
                                      i2u738_41 157C                                        i2u771_40 17AE  
                                      i2u763_40 1726                                        i2u755_40 169E  
                                      i2u747_40 1616                                        i2u739_40 158E  
                                      i2u771_41 17AA                                        i2u763_41 1722  
                                      i2u755_41 169A                                        i2u747_41 1612  
                                      i2u739_41 158A                                        i2u595_48 2F16  
                                      i2u596_40 2EE0                                        i2u780_40 1840  
                                      i2u772_40 17C0                                        i2u764_40 1734  
                                      i2u756_40 16AC                                        i2u748_40 1624  
                                      i2u595_49 2F28                                        i2u596_41 2EDC  
                                      i2u780_41 183C                                        i2u772_41 17BC  
                                      i2u764_41 1730                                        i2u756_41 16A8  
                                      i2u748_41 1620                                        i2u781_40 184E  
                                      i2u773_40 17CE                                        i2u765_40 1744  
                                      i2u757_40 16BC                                        i2u749_40 1634  
                                      i2u781_41 184A                                        i2u773_41 17CA  
                                      i2u765_41 1740                                        i2u757_41 16B8  
                                      i2u749_41 1630                                        i2u597_48 2EE6  
                                      i2u598_40 28A6                                        i2u782_40 1860  
                                      i2u774_40 17E0                                        i2u766_40 175C  
                                      i2u758_40 16D4                                        i2u597_49 2EF8  
                                      i2u598_41 28A2                                        i2u782_41 185C  
                                      i2u774_41 17DC                                        i2u766_41 1758  
                                      i2u758_41 16D0                                        i2u599_40 28BA  
                                      i2u783_40 186E                                        i2u775_40 17EE  
                                      i2u767_40 176A                                        i2u759_40 16E2  
                                      i2u599_41 28B6                                        i2u783_41 186A  
                                      i2u775_41 17EA                                        i2u767_41 1766  
                                      i2u759_41 16DE                                        i2u784_40 1880  
                                      i2u776_40 1800                                        i2u768_40 1778  
                                      i2u784_41 187C                                        i2u776_41 17FC  
                                      i2u768_41 1774                                        i2u785_40 188E  
                                      i2u777_40 180E                                        i2u769_40 1788  
                                      i2u785_41 188A                                        i2u777_41 180A  
                                      i2u769_41 1784                                        i2u786_40 18A0  
                                      i2u778_40 1820                                        i2u786_41 189C  
                                      i2u778_41 181C                                        i2u787_40 18AE  
                                      i2u779_40 182E                                        i2u787_41 18AA  
                                      i2u779_41 182A                                        i2u788_40 18C0  
                                      i2u788_41 18BC                                        i2u789_40 18CE  
                                      i2u789_41 18CA                                       _timer1_on 008A  
                                     _timer2_on 0088                                led_toggle@config 000C  
                                     _timer_ISR 303A                                  i2_led_turn_off 2A96  
                          __end_of_USART_RX_ISR 302A                            __end_of_USART_TX_ISR 302E  
                                    _ADCON0bits 0FC2                                      _ADCON1bits 0FC1  
                                    _ADCON2bits 0FC0                            ??_gpio_pin_intialize 0022  
           fp__MSSP_I2C_DefaultInterruptHandler 0000        __end_of_MSSP_I2C_DefaultInterruptHandler 2DF6  
            ??_MSSP_I2C_DefaultInterruptHandler 0001               ?_MSSP_I2C_DefaultInterruptHandler 0001  
              _MSSP_I2C_DefaultInterruptHandler 2DBA                                     _led_turn_on 2996  
                       gpio_pin_write_logic@ret 001F                                     _INTCON2bits 0FF1  
                                   _INTCON3bits 0FF0                                       copy_data0 260C  
                                     copy_data1 262C                                       copy_data2 264C  
                                  ??_led_toggle 000A                      ??_Timer3_Interrupt_capture 0001  
                                    _EECON1bits 0FA6                      ??_Timer3_Interrupt_compare 0009  
                                   _counter_obj 0187                                  led_turn_on@led 0020  
                                led_turn_on@ret 0023                                        __Hrparam 0000  
                        __end_ofi2_led_turn_off 2B16                                        __Lrparam 0000  
                                    ?_timer_ISR 0001                                   _mssp_i2c_Init 1C88  
                         _CCP1_InterruptHandler 00CC                              __end_of_led_toggle 2C8E  
                            led_intialize@F3016 0057                                        ___xxtofl 1E7C  
                                  _MSSP_I2C_ISR 2E9A                        dc_motor_turn_right@F3022 005D  
                      dc_motor_turn_right@F3024 005C                                 fp__APP_RB4_High 0000  
                                      __ptext10 2D04                                        __ptext11 2174  
                                      __ptext20 3014                                        __ptext12 2030  
                                      __ptext21 2E2E                                        __ptext30 2B16  
                                      __ptext22 303A                                        __ptext14 302A  
                                      __ptext31 22A0                                        __ptext23 270C  
                                      __ptext15 3024                                        __ptext40 3032  
                                      __ptext32 2E9A                                        __ptext24 278E  
                                      __ptext16 2F5A                                        __ptext41 2F2A  
                                      __ptext33 2DBA                                        __ptext25 2810  
                                      __ptext17 2E66                                        __ptext42 301C  
                                      __ptext34 302E                                        __ptext26 2892  
                                      __ptext18 300C                                        __ptext43 2686  
                                      __ptext35 2ECA                                        __ptext27 2FCC  
                                      __ptext19 2DF6                                        __ptext44 2C8E  
                                      __ptext36 2EFA                                        __ptext28 2A96  
                                      __ptext45 2F88                                        __ptext37 2FF0  
                                      __ptext29 2FDE                                        __ptext46 3036  
                                      __ptext38 2C12                                        __ptext47 0000  
                                      __ptext39 2566                                        _btn_high 00F7  
                  gpio_pin_intialize@pin_config 0020                                    ??_timer2_ISR 0001  
                               ?i2_led_turn_off 000A                                        isa$xinst 0000  
                                      int$flags 006A                                  ?_mssp_i2c_Init 01AF  
                                  _timer0_value 008C                                      _INTCONbits 0FF2  
          _USART_FRAMING_ERROR_InterruptHandler 0094                           __end_ofi2_led_turn_on 2B96  
                          _TM0_InterruptHandler 00A8         CCP_Interrupt_Capture@CCP_interrupt_flag 0047  
                                  _value_column 004C                    __end_of_gpio_pin_write_logic 22A0  
                              RB4_ISR@RB_Source 000F                              __end_of_timer2_ISR 3014  
                                      intlevel2 0000                                 _interruptManger 0008  
               gpio_pin_toggle_logic@pin_config 0001     _I2C_Report_Recive_OverFlow_InterruptHandler 00C0  
                                 ?_APP_RB4_High 0001                                  fp__APP_RB4_Low 0000  
                       ?i2_gpio_pin_write_logic 0001          gpio_pin_direction_intialize@pin_config 0016  
                                   ??_timer_ISR 0001                           _gpio_pin_toggle_logic 2566  
                                  ?_APP_RB4_Low 0001                                     _SSPCON1bits 0FC6  
                                   _SSPCON2bits 0FC5                               fp__Timer1_Default 0000  
                                 ___fladd@signs 01A3                           _CCP2_InterruptHandler 00CA  
                                 _port_register 0125                                  ??_APP_RB4_High 000F  
                                  _USART_RX_ISR 3024                                    _USART_TX_ISR 302A  
                    __end_of_Timer3_Write_Value 2FB2                                    ___fladd@aexp 01A4  
                                  ___fladd@bexp 01A5                  __end_ofi2_gpio_pin_write_logic 23C2  
                               ??_mssp_i2c_Init 01B1  
